SF:/Users/christianfindlay/Documents/Code/dart_mutant/src/ai/mod.rs
FN:264,_RNCNCNvMNtCseR5cf6Ey2ES_11dart_mutant2aiNtB6_19AiMutationSuggester17parse_ai_responses2_00B8_
FN:266,_RNCNCNvMNtCseR5cf6Ey2ES_11dart_mutant2aiNtB6_19AiMutationSuggester17parse_ai_responses2_0s0_0B8_
FN:267,_RNCNCNvMNtCseR5cf6Ey2ES_11dart_mutant2aiNtB6_19AiMutationSuggester17parse_ai_responses2_0s1_0B8_
FN:268,_RNCNCNvMNtCseR5cf6Ey2ES_11dart_mutant2aiNtB6_19AiMutationSuggester17parse_ai_responses2_0s2_0B8_
FN:265,_RNCNCNvMNtCseR5cf6Ey2ES_11dart_mutant2aiNtB6_19AiMutationSuggester17parse_ai_responses2_0s_0B8_
FN:271,_RNCNCNvMNtCseR5cf6Ey2ES_11dart_mutant2aiNtB6_19AiMutationSuggester17parse_ai_responses3_00B8_
FN:63,_RNCNCNvMNtCseR5cf6Ey2ES_11dart_mutant2aiNtB6_19AiMutationSuggester17suggest_mutations00B8_
FN:166,_RNCNCNvMNtCseR5cf6Ey2ES_11dart_mutant2aiNtB6_19AiMutationSuggester19suggest_with_openai00B8_
FN:135,_RNCNCNvMNtCseR5cf6Ey2ES_11dart_mutant2aiNtB6_19AiMutationSuggester22suggest_with_anthropic00B8_
FN:257,_RNCNvMNtCseR5cf6Ey2ES_11dart_mutant2aiNtB4_19AiMutationSuggester17parse_ai_response0B6_
FN:259,_RNCNvMNtCseR5cf6Ey2ES_11dart_mutant2aiNtB4_19AiMutationSuggester17parse_ai_responses0_0B6_
FN:260,_RNCNvMNtCseR5cf6Ey2ES_11dart_mutant2aiNtB4_19AiMutationSuggester17parse_ai_responses1_0B6_
FN:262,_RNCNvMNtCseR5cf6Ey2ES_11dart_mutant2aiNtB4_19AiMutationSuggester17parse_ai_responses2_0B6_
FN:271,_RNCNvMNtCseR5cf6Ey2ES_11dart_mutant2aiNtB4_19AiMutationSuggester17parse_ai_responses3_0B6_
FN:258,_RNCNvMNtCseR5cf6Ey2ES_11dart_mutant2aiNtB4_19AiMutationSuggester17parse_ai_responses_0B6_
FN:51,_RNCNvMNtCseR5cf6Ey2ES_11dart_mutant2aiNtB4_19AiMutationSuggester17suggest_mutations0B6_
FN:193,_RNCNvMNtCseR5cf6Ey2ES_11dart_mutant2aiNtB4_19AiMutationSuggester19suggest_with_ollama0B6_
FN:162,_RNCNvMNtCseR5cf6Ey2ES_11dart_mutant2aiNtB4_19AiMutationSuggester19suggest_with_openai0B6_
FN:131,_RNCNvMNtCseR5cf6Ey2ES_11dart_mutant2aiNtB4_19AiMutationSuggester22suggest_with_anthropic0B6_
FN:301,_RNCNvNtCseR5cf6Ey2ES_11dart_mutant2ai27suggest_mutations_for_files0B5_
FN:212,_RNvMNtCseR5cf6Ey2ES_11dart_mutant2aiNtB2_19AiMutationSuggester12build_prompt
FN:253,_RNvMNtCseR5cf6Ey2ES_11dart_mutant2aiNtB2_19AiMutationSuggester17parse_ai_response
FN:51,_RNvMNtCseR5cf6Ey2ES_11dart_mutant2aiNtB2_19AiMutationSuggester17suggest_mutations
FN:193,_RNvMNtCseR5cf6Ey2ES_11dart_mutant2aiNtB2_19AiMutationSuggester19suggest_with_ollama
FN:162,_RNvMNtCseR5cf6Ey2ES_11dart_mutant2aiNtB2_19AiMutationSuggester19suggest_with_openai
FN:131,_RNvMNtCseR5cf6Ey2ES_11dart_mutant2aiNtB2_19AiMutationSuggester22suggest_with_anthropic
FN:69,_RNvMNtCseR5cf6Ey2ES_11dart_mutant2aiNtB2_19AiMutationSuggester22suggestion_to_mutation
FN:34,_RNvMNtCseR5cf6Ey2ES_11dart_mutant2aiNtB2_19AiMutationSuggester3new
FN:294,_RNvNtCseR5cf6Ey2ES_11dart_mutant2ai27suggest_mutations_for_files
FN:264,_RNCNCNvMNtCshkVzQuBAxZ5_11dart_mutant2aiNtB6_19AiMutationSuggester17parse_ai_responses2_00B8_
FN:266,_RNCNCNvMNtCshkVzQuBAxZ5_11dart_mutant2aiNtB6_19AiMutationSuggester17parse_ai_responses2_0s0_0B8_
FN:267,_RNCNCNvMNtCshkVzQuBAxZ5_11dart_mutant2aiNtB6_19AiMutationSuggester17parse_ai_responses2_0s1_0B8_
FN:268,_RNCNCNvMNtCshkVzQuBAxZ5_11dart_mutant2aiNtB6_19AiMutationSuggester17parse_ai_responses2_0s2_0B8_
FN:265,_RNCNCNvMNtCshkVzQuBAxZ5_11dart_mutant2aiNtB6_19AiMutationSuggester17parse_ai_responses2_0s_0B8_
FN:271,_RNCNCNvMNtCshkVzQuBAxZ5_11dart_mutant2aiNtB6_19AiMutationSuggester17parse_ai_responses3_00B8_
FN:63,_RNCNCNvMNtCshkVzQuBAxZ5_11dart_mutant2aiNtB6_19AiMutationSuggester17suggest_mutations00B8_
FN:166,_RNCNCNvMNtCshkVzQuBAxZ5_11dart_mutant2aiNtB6_19AiMutationSuggester19suggest_with_openai00B8_
FN:135,_RNCNCNvMNtCshkVzQuBAxZ5_11dart_mutant2aiNtB6_19AiMutationSuggester22suggest_with_anthropic00B8_
FN:257,_RNCNvMNtCshkVzQuBAxZ5_11dart_mutant2aiNtB4_19AiMutationSuggester17parse_ai_response0B6_
FN:259,_RNCNvMNtCshkVzQuBAxZ5_11dart_mutant2aiNtB4_19AiMutationSuggester17parse_ai_responses0_0B6_
FN:260,_RNCNvMNtCshkVzQuBAxZ5_11dart_mutant2aiNtB4_19AiMutationSuggester17parse_ai_responses1_0B6_
FN:262,_RNCNvMNtCshkVzQuBAxZ5_11dart_mutant2aiNtB4_19AiMutationSuggester17parse_ai_responses2_0B6_
FN:271,_RNCNvMNtCshkVzQuBAxZ5_11dart_mutant2aiNtB4_19AiMutationSuggester17parse_ai_responses3_0B6_
FN:258,_RNCNvMNtCshkVzQuBAxZ5_11dart_mutant2aiNtB4_19AiMutationSuggester17parse_ai_responses_0B6_
FN:51,_RNCNvMNtCshkVzQuBAxZ5_11dart_mutant2aiNtB4_19AiMutationSuggester17suggest_mutations0B6_
FN:193,_RNCNvMNtCshkVzQuBAxZ5_11dart_mutant2aiNtB4_19AiMutationSuggester19suggest_with_ollama0B6_
FN:162,_RNCNvMNtCshkVzQuBAxZ5_11dart_mutant2aiNtB4_19AiMutationSuggester19suggest_with_openai0B6_
FN:131,_RNCNvMNtCshkVzQuBAxZ5_11dart_mutant2aiNtB4_19AiMutationSuggester22suggest_with_anthropic0B6_
FN:301,_RNCNvNtCshkVzQuBAxZ5_11dart_mutant2ai27suggest_mutations_for_files0B5_
FN:212,_RNvMNtCshkVzQuBAxZ5_11dart_mutant2aiNtB2_19AiMutationSuggester12build_prompt
FN:253,_RNvMNtCshkVzQuBAxZ5_11dart_mutant2aiNtB2_19AiMutationSuggester17parse_ai_response
FN:51,_RNvMNtCshkVzQuBAxZ5_11dart_mutant2aiNtB2_19AiMutationSuggester17suggest_mutations
FN:193,_RNvMNtCshkVzQuBAxZ5_11dart_mutant2aiNtB2_19AiMutationSuggester19suggest_with_ollama
FN:162,_RNvMNtCshkVzQuBAxZ5_11dart_mutant2aiNtB2_19AiMutationSuggester19suggest_with_openai
FN:131,_RNvMNtCshkVzQuBAxZ5_11dart_mutant2aiNtB2_19AiMutationSuggester22suggest_with_anthropic
FN:69,_RNvMNtCshkVzQuBAxZ5_11dart_mutant2aiNtB2_19AiMutationSuggester22suggestion_to_mutation
FN:34,_RNvMNtCshkVzQuBAxZ5_11dart_mutant2aiNtB2_19AiMutationSuggester3new
FN:294,_RNvNtCshkVzQuBAxZ5_11dart_mutant2ai27suggest_mutations_for_files
FNDA:0,_RNCNCNvMNtCseR5cf6Ey2ES_11dart_mutant2aiNtB6_19AiMutationSuggester17parse_ai_responses2_00B8_
FNDA:0,_RNCNCNvMNtCseR5cf6Ey2ES_11dart_mutant2aiNtB6_19AiMutationSuggester17parse_ai_responses2_0s0_0B8_
FNDA:0,_RNCNCNvMNtCseR5cf6Ey2ES_11dart_mutant2aiNtB6_19AiMutationSuggester17parse_ai_responses2_0s1_0B8_
FNDA:0,_RNCNCNvMNtCseR5cf6Ey2ES_11dart_mutant2aiNtB6_19AiMutationSuggester17parse_ai_responses2_0s2_0B8_
FNDA:0,_RNCNCNvMNtCseR5cf6Ey2ES_11dart_mutant2aiNtB6_19AiMutationSuggester17parse_ai_responses2_0s_0B8_
FNDA:0,_RNCNCNvMNtCseR5cf6Ey2ES_11dart_mutant2aiNtB6_19AiMutationSuggester17parse_ai_responses3_00B8_
FNDA:0,_RNCNCNvMNtCseR5cf6Ey2ES_11dart_mutant2aiNtB6_19AiMutationSuggester17suggest_mutations00B8_
FNDA:0,_RNCNCNvMNtCseR5cf6Ey2ES_11dart_mutant2aiNtB6_19AiMutationSuggester19suggest_with_openai00B8_
FNDA:0,_RNCNCNvMNtCseR5cf6Ey2ES_11dart_mutant2aiNtB6_19AiMutationSuggester22suggest_with_anthropic00B8_
FNDA:0,_RNCNvMNtCseR5cf6Ey2ES_11dart_mutant2aiNtB4_19AiMutationSuggester17parse_ai_response0B6_
FNDA:0,_RNCNvMNtCseR5cf6Ey2ES_11dart_mutant2aiNtB4_19AiMutationSuggester17parse_ai_responses0_0B6_
FNDA:0,_RNCNvMNtCseR5cf6Ey2ES_11dart_mutant2aiNtB4_19AiMutationSuggester17parse_ai_responses1_0B6_
FNDA:0,_RNCNvMNtCseR5cf6Ey2ES_11dart_mutant2aiNtB4_19AiMutationSuggester17parse_ai_responses2_0B6_
FNDA:0,_RNCNvMNtCseR5cf6Ey2ES_11dart_mutant2aiNtB4_19AiMutationSuggester17parse_ai_responses3_0B6_
FNDA:0,_RNCNvMNtCseR5cf6Ey2ES_11dart_mutant2aiNtB4_19AiMutationSuggester17parse_ai_responses_0B6_
FNDA:0,_RNCNvMNtCseR5cf6Ey2ES_11dart_mutant2aiNtB4_19AiMutationSuggester17suggest_mutations0B6_
FNDA:0,_RNCNvMNtCseR5cf6Ey2ES_11dart_mutant2aiNtB4_19AiMutationSuggester19suggest_with_ollama0B6_
FNDA:0,_RNCNvMNtCseR5cf6Ey2ES_11dart_mutant2aiNtB4_19AiMutationSuggester19suggest_with_openai0B6_
FNDA:0,_RNCNvMNtCseR5cf6Ey2ES_11dart_mutant2aiNtB4_19AiMutationSuggester22suggest_with_anthropic0B6_
FNDA:0,_RNCNvNtCseR5cf6Ey2ES_11dart_mutant2ai27suggest_mutations_for_files0B5_
FNDA:0,_RNvMNtCseR5cf6Ey2ES_11dart_mutant2aiNtB2_19AiMutationSuggester12build_prompt
FNDA:0,_RNvMNtCseR5cf6Ey2ES_11dart_mutant2aiNtB2_19AiMutationSuggester17parse_ai_response
FNDA:0,_RNvMNtCseR5cf6Ey2ES_11dart_mutant2aiNtB2_19AiMutationSuggester17suggest_mutations
FNDA:0,_RNvMNtCseR5cf6Ey2ES_11dart_mutant2aiNtB2_19AiMutationSuggester19suggest_with_ollama
FNDA:0,_RNvMNtCseR5cf6Ey2ES_11dart_mutant2aiNtB2_19AiMutationSuggester19suggest_with_openai
FNDA:0,_RNvMNtCseR5cf6Ey2ES_11dart_mutant2aiNtB2_19AiMutationSuggester22suggest_with_anthropic
FNDA:0,_RNvMNtCseR5cf6Ey2ES_11dart_mutant2aiNtB2_19AiMutationSuggester22suggestion_to_mutation
FNDA:0,_RNvMNtCseR5cf6Ey2ES_11dart_mutant2aiNtB2_19AiMutationSuggester3new
FNDA:0,_RNvNtCseR5cf6Ey2ES_11dart_mutant2ai27suggest_mutations_for_files
FNDA:0,_RNCNCNvMNtCshkVzQuBAxZ5_11dart_mutant2aiNtB6_19AiMutationSuggester17parse_ai_responses2_00B8_
FNDA:0,_RNCNCNvMNtCshkVzQuBAxZ5_11dart_mutant2aiNtB6_19AiMutationSuggester17parse_ai_responses2_0s0_0B8_
FNDA:0,_RNCNCNvMNtCshkVzQuBAxZ5_11dart_mutant2aiNtB6_19AiMutationSuggester17parse_ai_responses2_0s1_0B8_
FNDA:0,_RNCNCNvMNtCshkVzQuBAxZ5_11dart_mutant2aiNtB6_19AiMutationSuggester17parse_ai_responses2_0s2_0B8_
FNDA:0,_RNCNCNvMNtCshkVzQuBAxZ5_11dart_mutant2aiNtB6_19AiMutationSuggester17parse_ai_responses2_0s_0B8_
FNDA:0,_RNCNCNvMNtCshkVzQuBAxZ5_11dart_mutant2aiNtB6_19AiMutationSuggester17parse_ai_responses3_00B8_
FNDA:0,_RNCNCNvMNtCshkVzQuBAxZ5_11dart_mutant2aiNtB6_19AiMutationSuggester17suggest_mutations00B8_
FNDA:0,_RNCNCNvMNtCshkVzQuBAxZ5_11dart_mutant2aiNtB6_19AiMutationSuggester19suggest_with_openai00B8_
FNDA:0,_RNCNCNvMNtCshkVzQuBAxZ5_11dart_mutant2aiNtB6_19AiMutationSuggester22suggest_with_anthropic00B8_
FNDA:0,_RNCNvMNtCshkVzQuBAxZ5_11dart_mutant2aiNtB4_19AiMutationSuggester17parse_ai_response0B6_
FNDA:0,_RNCNvMNtCshkVzQuBAxZ5_11dart_mutant2aiNtB4_19AiMutationSuggester17parse_ai_responses0_0B6_
FNDA:0,_RNCNvMNtCshkVzQuBAxZ5_11dart_mutant2aiNtB4_19AiMutationSuggester17parse_ai_responses1_0B6_
FNDA:0,_RNCNvMNtCshkVzQuBAxZ5_11dart_mutant2aiNtB4_19AiMutationSuggester17parse_ai_responses2_0B6_
FNDA:0,_RNCNvMNtCshkVzQuBAxZ5_11dart_mutant2aiNtB4_19AiMutationSuggester17parse_ai_responses3_0B6_
FNDA:0,_RNCNvMNtCshkVzQuBAxZ5_11dart_mutant2aiNtB4_19AiMutationSuggester17parse_ai_responses_0B6_
FNDA:0,_RNCNvMNtCshkVzQuBAxZ5_11dart_mutant2aiNtB4_19AiMutationSuggester17suggest_mutations0B6_
FNDA:0,_RNCNvMNtCshkVzQuBAxZ5_11dart_mutant2aiNtB4_19AiMutationSuggester19suggest_with_ollama0B6_
FNDA:0,_RNCNvMNtCshkVzQuBAxZ5_11dart_mutant2aiNtB4_19AiMutationSuggester19suggest_with_openai0B6_
FNDA:0,_RNCNvMNtCshkVzQuBAxZ5_11dart_mutant2aiNtB4_19AiMutationSuggester22suggest_with_anthropic0B6_
FNDA:0,_RNCNvNtCshkVzQuBAxZ5_11dart_mutant2ai27suggest_mutations_for_files0B5_
FNDA:0,_RNvMNtCshkVzQuBAxZ5_11dart_mutant2aiNtB2_19AiMutationSuggester12build_prompt
FNDA:0,_RNvMNtCshkVzQuBAxZ5_11dart_mutant2aiNtB2_19AiMutationSuggester17parse_ai_response
FNDA:0,_RNvMNtCshkVzQuBAxZ5_11dart_mutant2aiNtB2_19AiMutationSuggester17suggest_mutations
FNDA:0,_RNvMNtCshkVzQuBAxZ5_11dart_mutant2aiNtB2_19AiMutationSuggester19suggest_with_ollama
FNDA:0,_RNvMNtCshkVzQuBAxZ5_11dart_mutant2aiNtB2_19AiMutationSuggester19suggest_with_openai
FNDA:0,_RNvMNtCshkVzQuBAxZ5_11dart_mutant2aiNtB2_19AiMutationSuggester22suggest_with_anthropic
FNDA:0,_RNvMNtCshkVzQuBAxZ5_11dart_mutant2aiNtB2_19AiMutationSuggester22suggestion_to_mutation
FNDA:0,_RNvMNtCshkVzQuBAxZ5_11dart_mutant2aiNtB2_19AiMutationSuggester3new
FNDA:0,_RNvNtCshkVzQuBAxZ5_11dart_mutant2ai27suggest_mutations_for_files
FNF:29
FNH:0
DA:34,0
DA:35,0
DA:36,0
DA:37,0
DA:38,0
DA:39,0
DA:40,0
DA:41,0
DA:42,0
DA:43,0
DA:44,0
DA:45,0
DA:46,0
DA:47,0
DA:48,0
DA:51,0
DA:52,0
DA:53,0
DA:54,0
DA:55,0
DA:56,0
DA:60,0
DA:61,0
DA:62,0
DA:63,0
DA:64,0
DA:65,0
DA:66,0
DA:67,0
DA:69,0
DA:70,0
DA:71,0
DA:72,0
DA:73,0
DA:74,0
DA:75,0
DA:76,0
DA:77,0
DA:78,0
DA:79,0
DA:80,0
DA:81,0
DA:82,0
DA:83,0
DA:85,0
DA:86,0
DA:87,0
DA:88,0
DA:89,0
DA:90,0
DA:91,0
DA:92,0
DA:93,0
DA:94,0
DA:95,0
DA:96,0
DA:97,0
DA:98,0
DA:99,0
DA:100,0
DA:101,0
DA:102,0
DA:103,0
DA:104,0
DA:105,0
DA:106,0
DA:107,0
DA:108,0
DA:109,0
DA:110,0
DA:111,0
DA:112,0
DA:113,0
DA:114,0
DA:115,0
DA:116,0
DA:117,0
DA:118,0
DA:119,0
DA:120,0
DA:121,0
DA:122,0
DA:123,0
DA:124,0
DA:125,0
DA:128,0
DA:129,0
DA:131,0
DA:132,0
DA:133,0
DA:134,0
DA:135,0
DA:136,0
DA:138,0
DA:139,0
DA:140,0
DA:141,0
DA:142,0
DA:143,0
DA:144,0
DA:145,0
DA:146,0
DA:147,0
DA:148,0
DA:149,0
DA:150,0
DA:151,0
DA:152,0
DA:153,0
DA:154,0
DA:155,0
DA:156,0
DA:158,0
DA:159,0
DA:160,0
DA:162,0
DA:163,0
DA:164,0
DA:165,0
DA:166,0
DA:167,0
DA:169,0
DA:170,0
DA:171,0
DA:172,0
DA:173,0
DA:174,0
DA:175,0
DA:176,0
DA:177,0
DA:178,0
DA:179,0
DA:180,0
DA:181,0
DA:182,0
DA:183,0
DA:184,0
DA:185,0
DA:186,0
DA:187,0
DA:189,0
DA:190,0
DA:191,0
DA:193,0
DA:194,0
DA:195,0
DA:196,0
DA:197,0
DA:198,0
DA:199,0
DA:200,0
DA:201,0
DA:202,0
DA:203,0
DA:204,0
DA:205,0
DA:206,0
DA:208,0
DA:209,0
DA:210,0
DA:212,0
DA:213,0
DA:214,0
DA:215,0
DA:216,0
DA:217,0
DA:218,0
DA:219,0
DA:220,0
DA:221,0
DA:222,0
DA:223,0
DA:224,0
DA:225,0
DA:226,0
DA:227,0
DA:228,0
DA:229,0
DA:230,0
DA:231,0
DA:232,0
DA:233,0
DA:234,0
DA:235,0
DA:236,0
DA:237,0
DA:238,0
DA:239,0
DA:240,0
DA:241,0
DA:242,0
DA:243,0
DA:244,0
DA:245,0
DA:246,0
DA:247,0
DA:248,0
DA:249,0
DA:250,0
DA:251,0
DA:253,0
DA:254,0
DA:255,0
DA:256,0
DA:257,0
DA:258,0
DA:259,0
DA:260,0
DA:261,0
DA:262,0
DA:263,0
DA:264,0
DA:265,0
DA:266,0
DA:267,0
DA:268,0
DA:269,0
DA:270,0
DA:271,0
DA:272,0
DA:275,0
DA:276,0
DA:277,0
DA:279,0
DA:282,0
DA:286,0
DA:287,0
DA:288,0
DA:289,0
DA:290,0
DA:294,0
DA:295,0
DA:296,0
DA:297,0
DA:298,0
DA:299,0
DA:300,0
DA:301,0
DA:302,0
DA:303,0
DA:304,0
DA:305,0
DA:306,0
DA:307,0
DA:308,0
DA:309,0
DA:310,0
DA:311,0
DA:312,0
DA:313,0
DA:314,0
DA:316,0
DA:317,0
DA:318,0
DA:319,0
DA:320,0
DA:321,0
DA:326,0
DA:327,0
BRF:0
BRH:0
LF:280
LH:0
end_of_record
SF:/Users/christianfindlay/Documents/Code/dart_mutant/src/cli/mod.rs
FN:68,_RNCINvNvXs7_NtCseR5cf6Ey2ES_11dart_mutant3cliNtBa_4ArgsNtNtCshhX45jbTzd3_12clap_builder6derive4Args12augment_args12iter_to_valsNtNtCsfmASsVe1tYz_5alloc6string6StringINtNtB25_3vec3VecB21_EE0Bc_
FN:68,_RNCNCNvXs7_NtCseR5cf6Ey2ES_11dart_mutant3cliNtB9_4ArgsNtNtCshhX45jbTzd3_12clap_builder6derive4Args12augment_args00Bb_
FN:190,_RNCNvMNtCseR5cf6Ey2ES_11dart_mutant3cliNtB4_4Args14get_ai_api_key0B6_
FN:179,_RNCNvNtCseR5cf6Ey2ES_11dart_mutant3cli8num_cpus0B5_
FN:61,_RNCNvXs6_NtCseR5cf6Ey2ES_11dart_mutant3cliNtB7_4ArgsNtNtCshhX45jbTzd3_12clap_builder6derive14FromArgMatches20from_arg_matches_mut0B9_
FN:76,_RNCNvXs6_NtCseR5cf6Ey2ES_11dart_mutant3cliNtB7_4ArgsNtNtCshhX45jbTzd3_12clap_builder6derive14FromArgMatches20from_arg_matches_muts0_0B9_
FN:80,_RNCNvXs6_NtCseR5cf6Ey2ES_11dart_mutant3cliNtB7_4ArgsNtNtCshhX45jbTzd3_12clap_builder6derive14FromArgMatches20from_arg_matches_muts1_0B9_
FN:84,_RNCNvXs6_NtCseR5cf6Ey2ES_11dart_mutant3cliNtB7_4ArgsNtNtCshhX45jbTzd3_12clap_builder6derive14FromArgMatches20from_arg_matches_muts2_0B9_
FN:88,_RNCNvXs6_NtCseR5cf6Ey2ES_11dart_mutant3cliNtB7_4ArgsNtNtCshhX45jbTzd3_12clap_builder6derive14FromArgMatches20from_arg_matches_muts3_0B9_
FN:92,_RNCNvXs6_NtCseR5cf6Ey2ES_11dart_mutant3cliNtB7_4ArgsNtNtCshhX45jbTzd3_12clap_builder6derive14FromArgMatches20from_arg_matches_muts4_0B9_
FN:96,_RNCNvXs6_NtCseR5cf6Ey2ES_11dart_mutant3cliNtB7_4ArgsNtNtCshhX45jbTzd3_12clap_builder6derive14FromArgMatches20from_arg_matches_muts5_0B9_
FN:100,_RNCNvXs6_NtCseR5cf6Ey2ES_11dart_mutant3cliNtB7_4ArgsNtNtCshhX45jbTzd3_12clap_builder6derive14FromArgMatches20from_arg_matches_muts6_0B9_
FN:104,_RNCNvXs6_NtCseR5cf6Ey2ES_11dart_mutant3cliNtB7_4ArgsNtNtCshhX45jbTzd3_12clap_builder6derive14FromArgMatches20from_arg_matches_muts7_0B9_
FN:108,_RNCNvXs6_NtCseR5cf6Ey2ES_11dart_mutant3cliNtB7_4ArgsNtNtCshhX45jbTzd3_12clap_builder6derive14FromArgMatches20from_arg_matches_muts8_0B9_
FN:116,_RNCNvXs6_NtCseR5cf6Ey2ES_11dart_mutant3cliNtB7_4ArgsNtNtCshhX45jbTzd3_12clap_builder6derive14FromArgMatches20from_arg_matches_muts9_0B9_
FN:65,_RNCNvXs6_NtCseR5cf6Ey2ES_11dart_mutant3cliNtB7_4ArgsNtNtCshhX45jbTzd3_12clap_builder6derive14FromArgMatches20from_arg_matches_muts_0B9_
FN:124,_RNCNvXs6_NtCseR5cf6Ey2ES_11dart_mutant3cliNtB7_4ArgsNtNtCshhX45jbTzd3_12clap_builder6derive14FromArgMatches20from_arg_matches_mutsa_0B9_
FN:128,_RNCNvXs6_NtCseR5cf6Ey2ES_11dart_mutant3cliNtB7_4ArgsNtNtCshhX45jbTzd3_12clap_builder6derive14FromArgMatches20from_arg_matches_mutsb_0B9_
FN:132,_RNCNvXs6_NtCseR5cf6Ey2ES_11dart_mutant3cliNtB7_4ArgsNtNtCshhX45jbTzd3_12clap_builder6derive14FromArgMatches20from_arg_matches_mutsc_0B9_
FN:137,_RNCNvXs6_NtCseR5cf6Ey2ES_11dart_mutant3cliNtB7_4ArgsNtNtCshhX45jbTzd3_12clap_builder6derive14FromArgMatches20from_arg_matches_mutsd_0B9_
FN:145,_RNCNvXs6_NtCseR5cf6Ey2ES_11dart_mutant3cliNtB7_4ArgsNtNtCshhX45jbTzd3_12clap_builder6derive14FromArgMatches20from_arg_matches_mutse_0B9_
FN:149,_RNCNvXs6_NtCseR5cf6Ey2ES_11dart_mutant3cliNtB7_4ArgsNtNtCshhX45jbTzd3_12clap_builder6derive14FromArgMatches20from_arg_matches_mutsf_0B9_
FN:153,_RNCNvXs6_NtCseR5cf6Ey2ES_11dart_mutant3cliNtB7_4ArgsNtNtCshhX45jbTzd3_12clap_builder6derive14FromArgMatches20from_arg_matches_mutsg_0B9_
FN:158,_RNCNvXs6_NtCseR5cf6Ey2ES_11dart_mutant3cliNtB7_4ArgsNtNtCshhX45jbTzd3_12clap_builder6derive14FromArgMatches20from_arg_matches_mutsh_0B9_
FN:162,_RNCNvXs6_NtCseR5cf6Ey2ES_11dart_mutant3cliNtB7_4ArgsNtNtCshhX45jbTzd3_12clap_builder6derive14FromArgMatches20from_arg_matches_mutsi_0B9_
FN:166,_RNCNvXs6_NtCseR5cf6Ey2ES_11dart_mutant3cliNtB7_4ArgsNtNtCshhX45jbTzd3_12clap_builder6derive14FromArgMatches20from_arg_matches_mutsj_0B9_
FN:170,_RNCNvXs6_NtCseR5cf6Ey2ES_11dart_mutant3cliNtB7_4ArgsNtNtCshhX45jbTzd3_12clap_builder6derive14FromArgMatches20from_arg_matches_mutsk_0B9_
FN:174,_RNCNvXs6_NtCseR5cf6Ey2ES_11dart_mutant3cliNtB7_4ArgsNtNtCshhX45jbTzd3_12clap_builder6derive14FromArgMatches20from_arg_matches_mutsl_0B9_
FN:157,_RNCNvXs7_NtCseR5cf6Ey2ES_11dart_mutant3cliNtB7_4ArgsNtNtCshhX45jbTzd3_12clap_builder6derive4Args12augment_argss0_0B9_
FN:79,_RNCNvXs7_NtCseR5cf6Ey2ES_11dart_mutant3cliNtB7_4ArgsNtNtCshhX45jbTzd3_12clap_builder6derive4Args12augment_argss_0B9_
FN:68,_RNCINvNvXs7_NtCseR5cf6Ey2ES_11dart_mutant3cliNtBa_4ArgsNtNtCshhX45jbTzd3_12clap_builder6derive4Args23augment_args_for_update12iter_to_valsppE0Bc_
FN:68,_RNCNCNvXs7_NtCseR5cf6Ey2ES_11dart_mutant3cliNtB9_4ArgsNtNtCshhX45jbTzd3_12clap_builder6derive4Args23augment_args_for_update00Bb_
FN:61,_RNCNvXs6_NtCseR5cf6Ey2ES_11dart_mutant3cliNtB7_4ArgsNtNtCshhX45jbTzd3_12clap_builder6derive14FromArgMatches27update_from_arg_matches_mut0B9_
FN:76,_RNCNvXs6_NtCseR5cf6Ey2ES_11dart_mutant3cliNtB7_4ArgsNtNtCshhX45jbTzd3_12clap_builder6derive14FromArgMatches27update_from_arg_matches_muts0_0B9_
FN:80,_RNCNvXs6_NtCseR5cf6Ey2ES_11dart_mutant3cliNtB7_4ArgsNtNtCshhX45jbTzd3_12clap_builder6derive14FromArgMatches27update_from_arg_matches_muts1_0B9_
FN:84,_RNCNvXs6_NtCseR5cf6Ey2ES_11dart_mutant3cliNtB7_4ArgsNtNtCshhX45jbTzd3_12clap_builder6derive14FromArgMatches27update_from_arg_matches_muts2_0B9_
FN:88,_RNCNvXs6_NtCseR5cf6Ey2ES_11dart_mutant3cliNtB7_4ArgsNtNtCshhX45jbTzd3_12clap_builder6derive14FromArgMatches27update_from_arg_matches_muts3_0B9_
FN:92,_RNCNvXs6_NtCseR5cf6Ey2ES_11dart_mutant3cliNtB7_4ArgsNtNtCshhX45jbTzd3_12clap_builder6derive14FromArgMatches27update_from_arg_matches_muts4_0B9_
FN:96,_RNCNvXs6_NtCseR5cf6Ey2ES_11dart_mutant3cliNtB7_4ArgsNtNtCshhX45jbTzd3_12clap_builder6derive14FromArgMatches27update_from_arg_matches_muts5_0B9_
FN:100,_RNCNvXs6_NtCseR5cf6Ey2ES_11dart_mutant3cliNtB7_4ArgsNtNtCshhX45jbTzd3_12clap_builder6derive14FromArgMatches27update_from_arg_matches_muts6_0B9_
FN:104,_RNCNvXs6_NtCseR5cf6Ey2ES_11dart_mutant3cliNtB7_4ArgsNtNtCshhX45jbTzd3_12clap_builder6derive14FromArgMatches27update_from_arg_matches_muts7_0B9_
FN:108,_RNCNvXs6_NtCseR5cf6Ey2ES_11dart_mutant3cliNtB7_4ArgsNtNtCshhX45jbTzd3_12clap_builder6derive14FromArgMatches27update_from_arg_matches_muts8_0B9_
FN:116,_RNCNvXs6_NtCseR5cf6Ey2ES_11dart_mutant3cliNtB7_4ArgsNtNtCshhX45jbTzd3_12clap_builder6derive14FromArgMatches27update_from_arg_matches_muts9_0B9_
FN:65,_RNCNvXs6_NtCseR5cf6Ey2ES_11dart_mutant3cliNtB7_4ArgsNtNtCshhX45jbTzd3_12clap_builder6derive14FromArgMatches27update_from_arg_matches_muts_0B9_
FN:124,_RNCNvXs6_NtCseR5cf6Ey2ES_11dart_mutant3cliNtB7_4ArgsNtNtCshhX45jbTzd3_12clap_builder6derive14FromArgMatches27update_from_arg_matches_mutsa_0B9_
FN:128,_RNCNvXs6_NtCseR5cf6Ey2ES_11dart_mutant3cliNtB7_4ArgsNtNtCshhX45jbTzd3_12clap_builder6derive14FromArgMatches27update_from_arg_matches_mutsb_0B9_
FN:132,_RNCNvXs6_NtCseR5cf6Ey2ES_11dart_mutant3cliNtB7_4ArgsNtNtCshhX45jbTzd3_12clap_builder6derive14FromArgMatches27update_from_arg_matches_mutsc_0B9_
FN:137,_RNCNvXs6_NtCseR5cf6Ey2ES_11dart_mutant3cliNtB7_4ArgsNtNtCshhX45jbTzd3_12clap_builder6derive14FromArgMatches27update_from_arg_matches_mutsd_0B9_
FN:145,_RNCNvXs6_NtCseR5cf6Ey2ES_11dart_mutant3cliNtB7_4ArgsNtNtCshhX45jbTzd3_12clap_builder6derive14FromArgMatches27update_from_arg_matches_mutse_0B9_
FN:149,_RNCNvXs6_NtCseR5cf6Ey2ES_11dart_mutant3cliNtB7_4ArgsNtNtCshhX45jbTzd3_12clap_builder6derive14FromArgMatches27update_from_arg_matches_mutsf_0B9_
FN:153,_RNCNvXs6_NtCseR5cf6Ey2ES_11dart_mutant3cliNtB7_4ArgsNtNtCshhX45jbTzd3_12clap_builder6derive14FromArgMatches27update_from_arg_matches_mutsg_0B9_
FN:158,_RNCNvXs6_NtCseR5cf6Ey2ES_11dart_mutant3cliNtB7_4ArgsNtNtCshhX45jbTzd3_12clap_builder6derive14FromArgMatches27update_from_arg_matches_mutsh_0B9_
FN:162,_RNCNvXs6_NtCseR5cf6Ey2ES_11dart_mutant3cliNtB7_4ArgsNtNtCshhX45jbTzd3_12clap_builder6derive14FromArgMatches27update_from_arg_matches_mutsi_0B9_
FN:166,_RNCNvXs6_NtCseR5cf6Ey2ES_11dart_mutant3cliNtB7_4ArgsNtNtCshhX45jbTzd3_12clap_builder6derive14FromArgMatches27update_from_arg_matches_mutsj_0B9_
FN:170,_RNCNvXs6_NtCseR5cf6Ey2ES_11dart_mutant3cliNtB7_4ArgsNtNtCshhX45jbTzd3_12clap_builder6derive14FromArgMatches27update_from_arg_matches_mutsk_0B9_
FN:174,_RNCNvXs6_NtCseR5cf6Ey2ES_11dart_mutant3cliNtB7_4ArgsNtNtCshhX45jbTzd3_12clap_builder6derive14FromArgMatches27update_from_arg_matches_mutsl_0B9_
FN:157,_RNCNvXs7_NtCseR5cf6Ey2ES_11dart_mutant3cliNtB7_4ArgsNtNtCshhX45jbTzd3_12clap_builder6derive4Args23augment_args_for_updates0_0B9_
FN:79,_RNCNvXs7_NtCseR5cf6Ey2ES_11dart_mutant3cliNtB7_4ArgsNtNtCshhX45jbTzd3_12clap_builder6derive4Args23augment_args_for_updates_0B9_
FN:185,_RNvMNtCseR5cf6Ey2ES_11dart_mutant3cliNtB2_4Args13is_ai_enabled
FN:189,_RNvMNtCseR5cf6Ey2ES_11dart_mutant3cliNtB2_4Args14get_ai_api_key
FN:177,_RNvNtCseR5cf6Ey2ES_11dart_mutant3cli8num_cpus
FN:68,_RNCINvNvXs7_NtCshkVzQuBAxZ5_11dart_mutant3cliNtBa_4ArgsNtNtCshhX45jbTzd3_12clap_builder6derive4Args12augment_args12iter_to_valsppE0Bc_
FN:68,_RNCINvNvXs7_NtCshkVzQuBAxZ5_11dart_mutant3cliNtBa_4ArgsNtNtCshhX45jbTzd3_12clap_builder6derive4Args23augment_args_for_update12iter_to_valsppE0Bc_
FN:68,_RNCNCNvXs7_NtCshkVzQuBAxZ5_11dart_mutant3cliNtB9_4ArgsNtNtCshhX45jbTzd3_12clap_builder6derive4Args12augment_args00Bb_
FN:68,_RNCNCNvXs7_NtCshkVzQuBAxZ5_11dart_mutant3cliNtB9_4ArgsNtNtCshhX45jbTzd3_12clap_builder6derive4Args23augment_args_for_update00Bb_
FN:190,_RNCNvMNtCshkVzQuBAxZ5_11dart_mutant3cliNtB4_4Args14get_ai_api_key0B6_
FN:179,_RNCNvNtCshkVzQuBAxZ5_11dart_mutant3cli8num_cpus0B5_
FN:61,_RNCNvXs6_NtCshkVzQuBAxZ5_11dart_mutant3cliNtB7_4ArgsNtNtCshhX45jbTzd3_12clap_builder6derive14FromArgMatches20from_arg_matches_mut0B9_
FN:76,_RNCNvXs6_NtCshkVzQuBAxZ5_11dart_mutant3cliNtB7_4ArgsNtNtCshhX45jbTzd3_12clap_builder6derive14FromArgMatches20from_arg_matches_muts0_0B9_
FN:80,_RNCNvXs6_NtCshkVzQuBAxZ5_11dart_mutant3cliNtB7_4ArgsNtNtCshhX45jbTzd3_12clap_builder6derive14FromArgMatches20from_arg_matches_muts1_0B9_
FN:84,_RNCNvXs6_NtCshkVzQuBAxZ5_11dart_mutant3cliNtB7_4ArgsNtNtCshhX45jbTzd3_12clap_builder6derive14FromArgMatches20from_arg_matches_muts2_0B9_
FN:88,_RNCNvXs6_NtCshkVzQuBAxZ5_11dart_mutant3cliNtB7_4ArgsNtNtCshhX45jbTzd3_12clap_builder6derive14FromArgMatches20from_arg_matches_muts3_0B9_
FN:92,_RNCNvXs6_NtCshkVzQuBAxZ5_11dart_mutant3cliNtB7_4ArgsNtNtCshhX45jbTzd3_12clap_builder6derive14FromArgMatches20from_arg_matches_muts4_0B9_
FN:96,_RNCNvXs6_NtCshkVzQuBAxZ5_11dart_mutant3cliNtB7_4ArgsNtNtCshhX45jbTzd3_12clap_builder6derive14FromArgMatches20from_arg_matches_muts5_0B9_
FN:100,_RNCNvXs6_NtCshkVzQuBAxZ5_11dart_mutant3cliNtB7_4ArgsNtNtCshhX45jbTzd3_12clap_builder6derive14FromArgMatches20from_arg_matches_muts6_0B9_
FN:104,_RNCNvXs6_NtCshkVzQuBAxZ5_11dart_mutant3cliNtB7_4ArgsNtNtCshhX45jbTzd3_12clap_builder6derive14FromArgMatches20from_arg_matches_muts7_0B9_
FN:108,_RNCNvXs6_NtCshkVzQuBAxZ5_11dart_mutant3cliNtB7_4ArgsNtNtCshhX45jbTzd3_12clap_builder6derive14FromArgMatches20from_arg_matches_muts8_0B9_
FN:116,_RNCNvXs6_NtCshkVzQuBAxZ5_11dart_mutant3cliNtB7_4ArgsNtNtCshhX45jbTzd3_12clap_builder6derive14FromArgMatches20from_arg_matches_muts9_0B9_
FN:65,_RNCNvXs6_NtCshkVzQuBAxZ5_11dart_mutant3cliNtB7_4ArgsNtNtCshhX45jbTzd3_12clap_builder6derive14FromArgMatches20from_arg_matches_muts_0B9_
FN:124,_RNCNvXs6_NtCshkVzQuBAxZ5_11dart_mutant3cliNtB7_4ArgsNtNtCshhX45jbTzd3_12clap_builder6derive14FromArgMatches20from_arg_matches_mutsa_0B9_
FN:128,_RNCNvXs6_NtCshkVzQuBAxZ5_11dart_mutant3cliNtB7_4ArgsNtNtCshhX45jbTzd3_12clap_builder6derive14FromArgMatches20from_arg_matches_mutsb_0B9_
FN:132,_RNCNvXs6_NtCshkVzQuBAxZ5_11dart_mutant3cliNtB7_4ArgsNtNtCshhX45jbTzd3_12clap_builder6derive14FromArgMatches20from_arg_matches_mutsc_0B9_
FN:137,_RNCNvXs6_NtCshkVzQuBAxZ5_11dart_mutant3cliNtB7_4ArgsNtNtCshhX45jbTzd3_12clap_builder6derive14FromArgMatches20from_arg_matches_mutsd_0B9_
FN:145,_RNCNvXs6_NtCshkVzQuBAxZ5_11dart_mutant3cliNtB7_4ArgsNtNtCshhX45jbTzd3_12clap_builder6derive14FromArgMatches20from_arg_matches_mutse_0B9_
FN:149,_RNCNvXs6_NtCshkVzQuBAxZ5_11dart_mutant3cliNtB7_4ArgsNtNtCshhX45jbTzd3_12clap_builder6derive14FromArgMatches20from_arg_matches_mutsf_0B9_
FN:153,_RNCNvXs6_NtCshkVzQuBAxZ5_11dart_mutant3cliNtB7_4ArgsNtNtCshhX45jbTzd3_12clap_builder6derive14FromArgMatches20from_arg_matches_mutsg_0B9_
FN:158,_RNCNvXs6_NtCshkVzQuBAxZ5_11dart_mutant3cliNtB7_4ArgsNtNtCshhX45jbTzd3_12clap_builder6derive14FromArgMatches20from_arg_matches_mutsh_0B9_
FN:162,_RNCNvXs6_NtCshkVzQuBAxZ5_11dart_mutant3cliNtB7_4ArgsNtNtCshhX45jbTzd3_12clap_builder6derive14FromArgMatches20from_arg_matches_mutsi_0B9_
FN:166,_RNCNvXs6_NtCshkVzQuBAxZ5_11dart_mutant3cliNtB7_4ArgsNtNtCshhX45jbTzd3_12clap_builder6derive14FromArgMatches20from_arg_matches_mutsj_0B9_
FN:170,_RNCNvXs6_NtCshkVzQuBAxZ5_11dart_mutant3cliNtB7_4ArgsNtNtCshhX45jbTzd3_12clap_builder6derive14FromArgMatches20from_arg_matches_mutsk_0B9_
FN:174,_RNCNvXs6_NtCshkVzQuBAxZ5_11dart_mutant3cliNtB7_4ArgsNtNtCshhX45jbTzd3_12clap_builder6derive14FromArgMatches20from_arg_matches_mutsl_0B9_
FN:61,_RNCNvXs6_NtCshkVzQuBAxZ5_11dart_mutant3cliNtB7_4ArgsNtNtCshhX45jbTzd3_12clap_builder6derive14FromArgMatches27update_from_arg_matches_mut0B9_
FN:76,_RNCNvXs6_NtCshkVzQuBAxZ5_11dart_mutant3cliNtB7_4ArgsNtNtCshhX45jbTzd3_12clap_builder6derive14FromArgMatches27update_from_arg_matches_muts0_0B9_
FN:80,_RNCNvXs6_NtCshkVzQuBAxZ5_11dart_mutant3cliNtB7_4ArgsNtNtCshhX45jbTzd3_12clap_builder6derive14FromArgMatches27update_from_arg_matches_muts1_0B9_
FN:84,_RNCNvXs6_NtCshkVzQuBAxZ5_11dart_mutant3cliNtB7_4ArgsNtNtCshhX45jbTzd3_12clap_builder6derive14FromArgMatches27update_from_arg_matches_muts2_0B9_
FN:88,_RNCNvXs6_NtCshkVzQuBAxZ5_11dart_mutant3cliNtB7_4ArgsNtNtCshhX45jbTzd3_12clap_builder6derive14FromArgMatches27update_from_arg_matches_muts3_0B9_
FN:92,_RNCNvXs6_NtCshkVzQuBAxZ5_11dart_mutant3cliNtB7_4ArgsNtNtCshhX45jbTzd3_12clap_builder6derive14FromArgMatches27update_from_arg_matches_muts4_0B9_
FN:96,_RNCNvXs6_NtCshkVzQuBAxZ5_11dart_mutant3cliNtB7_4ArgsNtNtCshhX45jbTzd3_12clap_builder6derive14FromArgMatches27update_from_arg_matches_muts5_0B9_
FN:100,_RNCNvXs6_NtCshkVzQuBAxZ5_11dart_mutant3cliNtB7_4ArgsNtNtCshhX45jbTzd3_12clap_builder6derive14FromArgMatches27update_from_arg_matches_muts6_0B9_
FN:104,_RNCNvXs6_NtCshkVzQuBAxZ5_11dart_mutant3cliNtB7_4ArgsNtNtCshhX45jbTzd3_12clap_builder6derive14FromArgMatches27update_from_arg_matches_muts7_0B9_
FN:108,_RNCNvXs6_NtCshkVzQuBAxZ5_11dart_mutant3cliNtB7_4ArgsNtNtCshhX45jbTzd3_12clap_builder6derive14FromArgMatches27update_from_arg_matches_muts8_0B9_
FN:116,_RNCNvXs6_NtCshkVzQuBAxZ5_11dart_mutant3cliNtB7_4ArgsNtNtCshhX45jbTzd3_12clap_builder6derive14FromArgMatches27update_from_arg_matches_muts9_0B9_
FN:65,_RNCNvXs6_NtCshkVzQuBAxZ5_11dart_mutant3cliNtB7_4ArgsNtNtCshhX45jbTzd3_12clap_builder6derive14FromArgMatches27update_from_arg_matches_muts_0B9_
FN:124,_RNCNvXs6_NtCshkVzQuBAxZ5_11dart_mutant3cliNtB7_4ArgsNtNtCshhX45jbTzd3_12clap_builder6derive14FromArgMatches27update_from_arg_matches_mutsa_0B9_
FN:128,_RNCNvXs6_NtCshkVzQuBAxZ5_11dart_mutant3cliNtB7_4ArgsNtNtCshhX45jbTzd3_12clap_builder6derive14FromArgMatches27update_from_arg_matches_mutsb_0B9_
FN:132,_RNCNvXs6_NtCshkVzQuBAxZ5_11dart_mutant3cliNtB7_4ArgsNtNtCshhX45jbTzd3_12clap_builder6derive14FromArgMatches27update_from_arg_matches_mutsc_0B9_
FN:137,_RNCNvXs6_NtCshkVzQuBAxZ5_11dart_mutant3cliNtB7_4ArgsNtNtCshhX45jbTzd3_12clap_builder6derive14FromArgMatches27update_from_arg_matches_mutsd_0B9_
FN:145,_RNCNvXs6_NtCshkVzQuBAxZ5_11dart_mutant3cliNtB7_4ArgsNtNtCshhX45jbTzd3_12clap_builder6derive14FromArgMatches27update_from_arg_matches_mutse_0B9_
FN:149,_RNCNvXs6_NtCshkVzQuBAxZ5_11dart_mutant3cliNtB7_4ArgsNtNtCshhX45jbTzd3_12clap_builder6derive14FromArgMatches27update_from_arg_matches_mutsf_0B9_
FN:153,_RNCNvXs6_NtCshkVzQuBAxZ5_11dart_mutant3cliNtB7_4ArgsNtNtCshhX45jbTzd3_12clap_builder6derive14FromArgMatches27update_from_arg_matches_mutsg_0B9_
FN:158,_RNCNvXs6_NtCshkVzQuBAxZ5_11dart_mutant3cliNtB7_4ArgsNtNtCshhX45jbTzd3_12clap_builder6derive14FromArgMatches27update_from_arg_matches_mutsh_0B9_
FN:162,_RNCNvXs6_NtCshkVzQuBAxZ5_11dart_mutant3cliNtB7_4ArgsNtNtCshhX45jbTzd3_12clap_builder6derive14FromArgMatches27update_from_arg_matches_mutsi_0B9_
FN:166,_RNCNvXs6_NtCshkVzQuBAxZ5_11dart_mutant3cliNtB7_4ArgsNtNtCshhX45jbTzd3_12clap_builder6derive14FromArgMatches27update_from_arg_matches_mutsj_0B9_
FN:170,_RNCNvXs6_NtCshkVzQuBAxZ5_11dart_mutant3cliNtB7_4ArgsNtNtCshhX45jbTzd3_12clap_builder6derive14FromArgMatches27update_from_arg_matches_mutsk_0B9_
FN:174,_RNCNvXs6_NtCshkVzQuBAxZ5_11dart_mutant3cliNtB7_4ArgsNtNtCshhX45jbTzd3_12clap_builder6derive14FromArgMatches27update_from_arg_matches_mutsl_0B9_
FN:157,_RNCNvXs7_NtCshkVzQuBAxZ5_11dart_mutant3cliNtB7_4ArgsNtNtCshhX45jbTzd3_12clap_builder6derive4Args12augment_argss0_0B9_
FN:79,_RNCNvXs7_NtCshkVzQuBAxZ5_11dart_mutant3cliNtB7_4ArgsNtNtCshhX45jbTzd3_12clap_builder6derive4Args12augment_argss_0B9_
FN:157,_RNCNvXs7_NtCshkVzQuBAxZ5_11dart_mutant3cliNtB7_4ArgsNtNtCshhX45jbTzd3_12clap_builder6derive4Args23augment_args_for_updates0_0B9_
FN:79,_RNCNvXs7_NtCshkVzQuBAxZ5_11dart_mutant3cliNtB7_4ArgsNtNtCshhX45jbTzd3_12clap_builder6derive4Args23augment_args_for_updates_0B9_
FN:185,_RNvMNtCshkVzQuBAxZ5_11dart_mutant3cliNtB2_4Args13is_ai_enabled
FN:189,_RNvMNtCshkVzQuBAxZ5_11dart_mutant3cliNtB2_4Args14get_ai_api_key
FN:177,_RNvNtCshkVzQuBAxZ5_11dart_mutant3cli8num_cpus
FNDA:0,_RNCINvNvXs7_NtCseR5cf6Ey2ES_11dart_mutant3cliNtBa_4ArgsNtNtCshhX45jbTzd3_12clap_builder6derive4Args12augment_args12iter_to_valsNtNtCsfmASsVe1tYz_5alloc6string6StringINtNtB25_3vec3VecB21_EE0Bc_
FNDA:0,_RNCNCNvXs7_NtCseR5cf6Ey2ES_11dart_mutant3cliNtB9_4ArgsNtNtCshhX45jbTzd3_12clap_builder6derive4Args12augment_args00Bb_
FNDA:0,_RNCNvMNtCseR5cf6Ey2ES_11dart_mutant3cliNtB4_4Args14get_ai_api_key0B6_
FNDA:0,_RNCNvNtCseR5cf6Ey2ES_11dart_mutant3cli8num_cpus0B5_
FNDA:0,_RNCNvXs6_NtCseR5cf6Ey2ES_11dart_mutant3cliNtB7_4ArgsNtNtCshhX45jbTzd3_12clap_builder6derive14FromArgMatches20from_arg_matches_mut0B9_
FNDA:0,_RNCNvXs6_NtCseR5cf6Ey2ES_11dart_mutant3cliNtB7_4ArgsNtNtCshhX45jbTzd3_12clap_builder6derive14FromArgMatches20from_arg_matches_muts0_0B9_
FNDA:0,_RNCNvXs6_NtCseR5cf6Ey2ES_11dart_mutant3cliNtB7_4ArgsNtNtCshhX45jbTzd3_12clap_builder6derive14FromArgMatches20from_arg_matches_muts1_0B9_
FNDA:0,_RNCNvXs6_NtCseR5cf6Ey2ES_11dart_mutant3cliNtB7_4ArgsNtNtCshhX45jbTzd3_12clap_builder6derive14FromArgMatches20from_arg_matches_muts2_0B9_
FNDA:0,_RNCNvXs6_NtCseR5cf6Ey2ES_11dart_mutant3cliNtB7_4ArgsNtNtCshhX45jbTzd3_12clap_builder6derive14FromArgMatches20from_arg_matches_muts3_0B9_
FNDA:0,_RNCNvXs6_NtCseR5cf6Ey2ES_11dart_mutant3cliNtB7_4ArgsNtNtCshhX45jbTzd3_12clap_builder6derive14FromArgMatches20from_arg_matches_muts4_0B9_
FNDA:0,_RNCNvXs6_NtCseR5cf6Ey2ES_11dart_mutant3cliNtB7_4ArgsNtNtCshhX45jbTzd3_12clap_builder6derive14FromArgMatches20from_arg_matches_muts5_0B9_
FNDA:0,_RNCNvXs6_NtCseR5cf6Ey2ES_11dart_mutant3cliNtB7_4ArgsNtNtCshhX45jbTzd3_12clap_builder6derive14FromArgMatches20from_arg_matches_muts6_0B9_
FNDA:0,_RNCNvXs6_NtCseR5cf6Ey2ES_11dart_mutant3cliNtB7_4ArgsNtNtCshhX45jbTzd3_12clap_builder6derive14FromArgMatches20from_arg_matches_muts7_0B9_
FNDA:0,_RNCNvXs6_NtCseR5cf6Ey2ES_11dart_mutant3cliNtB7_4ArgsNtNtCshhX45jbTzd3_12clap_builder6derive14FromArgMatches20from_arg_matches_muts8_0B9_
FNDA:0,_RNCNvXs6_NtCseR5cf6Ey2ES_11dart_mutant3cliNtB7_4ArgsNtNtCshhX45jbTzd3_12clap_builder6derive14FromArgMatches20from_arg_matches_muts9_0B9_
FNDA:0,_RNCNvXs6_NtCseR5cf6Ey2ES_11dart_mutant3cliNtB7_4ArgsNtNtCshhX45jbTzd3_12clap_builder6derive14FromArgMatches20from_arg_matches_muts_0B9_
FNDA:0,_RNCNvXs6_NtCseR5cf6Ey2ES_11dart_mutant3cliNtB7_4ArgsNtNtCshhX45jbTzd3_12clap_builder6derive14FromArgMatches20from_arg_matches_mutsa_0B9_
FNDA:0,_RNCNvXs6_NtCseR5cf6Ey2ES_11dart_mutant3cliNtB7_4ArgsNtNtCshhX45jbTzd3_12clap_builder6derive14FromArgMatches20from_arg_matches_mutsb_0B9_
FNDA:0,_RNCNvXs6_NtCseR5cf6Ey2ES_11dart_mutant3cliNtB7_4ArgsNtNtCshhX45jbTzd3_12clap_builder6derive14FromArgMatches20from_arg_matches_mutsc_0B9_
FNDA:0,_RNCNvXs6_NtCseR5cf6Ey2ES_11dart_mutant3cliNtB7_4ArgsNtNtCshhX45jbTzd3_12clap_builder6derive14FromArgMatches20from_arg_matches_mutsd_0B9_
FNDA:0,_RNCNvXs6_NtCseR5cf6Ey2ES_11dart_mutant3cliNtB7_4ArgsNtNtCshhX45jbTzd3_12clap_builder6derive14FromArgMatches20from_arg_matches_mutse_0B9_
FNDA:0,_RNCNvXs6_NtCseR5cf6Ey2ES_11dart_mutant3cliNtB7_4ArgsNtNtCshhX45jbTzd3_12clap_builder6derive14FromArgMatches20from_arg_matches_mutsf_0B9_
FNDA:0,_RNCNvXs6_NtCseR5cf6Ey2ES_11dart_mutant3cliNtB7_4ArgsNtNtCshhX45jbTzd3_12clap_builder6derive14FromArgMatches20from_arg_matches_mutsg_0B9_
FNDA:0,_RNCNvXs6_NtCseR5cf6Ey2ES_11dart_mutant3cliNtB7_4ArgsNtNtCshhX45jbTzd3_12clap_builder6derive14FromArgMatches20from_arg_matches_mutsh_0B9_
FNDA:0,_RNCNvXs6_NtCseR5cf6Ey2ES_11dart_mutant3cliNtB7_4ArgsNtNtCshhX45jbTzd3_12clap_builder6derive14FromArgMatches20from_arg_matches_mutsi_0B9_
FNDA:0,_RNCNvXs6_NtCseR5cf6Ey2ES_11dart_mutant3cliNtB7_4ArgsNtNtCshhX45jbTzd3_12clap_builder6derive14FromArgMatches20from_arg_matches_mutsj_0B9_
FNDA:0,_RNCNvXs6_NtCseR5cf6Ey2ES_11dart_mutant3cliNtB7_4ArgsNtNtCshhX45jbTzd3_12clap_builder6derive14FromArgMatches20from_arg_matches_mutsk_0B9_
FNDA:0,_RNCNvXs6_NtCseR5cf6Ey2ES_11dart_mutant3cliNtB7_4ArgsNtNtCshhX45jbTzd3_12clap_builder6derive14FromArgMatches20from_arg_matches_mutsl_0B9_
FNDA:0,_RNCNvXs7_NtCseR5cf6Ey2ES_11dart_mutant3cliNtB7_4ArgsNtNtCshhX45jbTzd3_12clap_builder6derive4Args12augment_argss0_0B9_
FNDA:0,_RNCNvXs7_NtCseR5cf6Ey2ES_11dart_mutant3cliNtB7_4ArgsNtNtCshhX45jbTzd3_12clap_builder6derive4Args12augment_argss_0B9_
FNDA:0,_RNCINvNvXs7_NtCseR5cf6Ey2ES_11dart_mutant3cliNtBa_4ArgsNtNtCshhX45jbTzd3_12clap_builder6derive4Args23augment_args_for_update12iter_to_valsppE0Bc_
FNDA:0,_RNCNCNvXs7_NtCseR5cf6Ey2ES_11dart_mutant3cliNtB9_4ArgsNtNtCshhX45jbTzd3_12clap_builder6derive4Args23augment_args_for_update00Bb_
FNDA:0,_RNCNvXs6_NtCseR5cf6Ey2ES_11dart_mutant3cliNtB7_4ArgsNtNtCshhX45jbTzd3_12clap_builder6derive14FromArgMatches27update_from_arg_matches_mut0B9_
FNDA:0,_RNCNvXs6_NtCseR5cf6Ey2ES_11dart_mutant3cliNtB7_4ArgsNtNtCshhX45jbTzd3_12clap_builder6derive14FromArgMatches27update_from_arg_matches_muts0_0B9_
FNDA:0,_RNCNvXs6_NtCseR5cf6Ey2ES_11dart_mutant3cliNtB7_4ArgsNtNtCshhX45jbTzd3_12clap_builder6derive14FromArgMatches27update_from_arg_matches_muts1_0B9_
FNDA:0,_RNCNvXs6_NtCseR5cf6Ey2ES_11dart_mutant3cliNtB7_4ArgsNtNtCshhX45jbTzd3_12clap_builder6derive14FromArgMatches27update_from_arg_matches_muts2_0B9_
FNDA:0,_RNCNvXs6_NtCseR5cf6Ey2ES_11dart_mutant3cliNtB7_4ArgsNtNtCshhX45jbTzd3_12clap_builder6derive14FromArgMatches27update_from_arg_matches_muts3_0B9_
FNDA:0,_RNCNvXs6_NtCseR5cf6Ey2ES_11dart_mutant3cliNtB7_4ArgsNtNtCshhX45jbTzd3_12clap_builder6derive14FromArgMatches27update_from_arg_matches_muts4_0B9_
FNDA:0,_RNCNvXs6_NtCseR5cf6Ey2ES_11dart_mutant3cliNtB7_4ArgsNtNtCshhX45jbTzd3_12clap_builder6derive14FromArgMatches27update_from_arg_matches_muts5_0B9_
FNDA:0,_RNCNvXs6_NtCseR5cf6Ey2ES_11dart_mutant3cliNtB7_4ArgsNtNtCshhX45jbTzd3_12clap_builder6derive14FromArgMatches27update_from_arg_matches_muts6_0B9_
FNDA:0,_RNCNvXs6_NtCseR5cf6Ey2ES_11dart_mutant3cliNtB7_4ArgsNtNtCshhX45jbTzd3_12clap_builder6derive14FromArgMatches27update_from_arg_matches_muts7_0B9_
FNDA:0,_RNCNvXs6_NtCseR5cf6Ey2ES_11dart_mutant3cliNtB7_4ArgsNtNtCshhX45jbTzd3_12clap_builder6derive14FromArgMatches27update_from_arg_matches_muts8_0B9_
FNDA:0,_RNCNvXs6_NtCseR5cf6Ey2ES_11dart_mutant3cliNtB7_4ArgsNtNtCshhX45jbTzd3_12clap_builder6derive14FromArgMatches27update_from_arg_matches_muts9_0B9_
FNDA:0,_RNCNvXs6_NtCseR5cf6Ey2ES_11dart_mutant3cliNtB7_4ArgsNtNtCshhX45jbTzd3_12clap_builder6derive14FromArgMatches27update_from_arg_matches_muts_0B9_
FNDA:0,_RNCNvXs6_NtCseR5cf6Ey2ES_11dart_mutant3cliNtB7_4ArgsNtNtCshhX45jbTzd3_12clap_builder6derive14FromArgMatches27update_from_arg_matches_mutsa_0B9_
FNDA:0,_RNCNvXs6_NtCseR5cf6Ey2ES_11dart_mutant3cliNtB7_4ArgsNtNtCshhX45jbTzd3_12clap_builder6derive14FromArgMatches27update_from_arg_matches_mutsb_0B9_
FNDA:0,_RNCNvXs6_NtCseR5cf6Ey2ES_11dart_mutant3cliNtB7_4ArgsNtNtCshhX45jbTzd3_12clap_builder6derive14FromArgMatches27update_from_arg_matches_mutsc_0B9_
FNDA:0,_RNCNvXs6_NtCseR5cf6Ey2ES_11dart_mutant3cliNtB7_4ArgsNtNtCshhX45jbTzd3_12clap_builder6derive14FromArgMatches27update_from_arg_matches_mutsd_0B9_
FNDA:0,_RNCNvXs6_NtCseR5cf6Ey2ES_11dart_mutant3cliNtB7_4ArgsNtNtCshhX45jbTzd3_12clap_builder6derive14FromArgMatches27update_from_arg_matches_mutse_0B9_
FNDA:0,_RNCNvXs6_NtCseR5cf6Ey2ES_11dart_mutant3cliNtB7_4ArgsNtNtCshhX45jbTzd3_12clap_builder6derive14FromArgMatches27update_from_arg_matches_mutsf_0B9_
FNDA:0,_RNCNvXs6_NtCseR5cf6Ey2ES_11dart_mutant3cliNtB7_4ArgsNtNtCshhX45jbTzd3_12clap_builder6derive14FromArgMatches27update_from_arg_matches_mutsg_0B9_
FNDA:0,_RNCNvXs6_NtCseR5cf6Ey2ES_11dart_mutant3cliNtB7_4ArgsNtNtCshhX45jbTzd3_12clap_builder6derive14FromArgMatches27update_from_arg_matches_mutsh_0B9_
FNDA:0,_RNCNvXs6_NtCseR5cf6Ey2ES_11dart_mutant3cliNtB7_4ArgsNtNtCshhX45jbTzd3_12clap_builder6derive14FromArgMatches27update_from_arg_matches_mutsi_0B9_
FNDA:0,_RNCNvXs6_NtCseR5cf6Ey2ES_11dart_mutant3cliNtB7_4ArgsNtNtCshhX45jbTzd3_12clap_builder6derive14FromArgMatches27update_from_arg_matches_mutsj_0B9_
FNDA:0,_RNCNvXs6_NtCseR5cf6Ey2ES_11dart_mutant3cliNtB7_4ArgsNtNtCshhX45jbTzd3_12clap_builder6derive14FromArgMatches27update_from_arg_matches_mutsk_0B9_
FNDA:0,_RNCNvXs6_NtCseR5cf6Ey2ES_11dart_mutant3cliNtB7_4ArgsNtNtCshhX45jbTzd3_12clap_builder6derive14FromArgMatches27update_from_arg_matches_mutsl_0B9_
FNDA:0,_RNCNvXs7_NtCseR5cf6Ey2ES_11dart_mutant3cliNtB7_4ArgsNtNtCshhX45jbTzd3_12clap_builder6derive4Args23augment_args_for_updates0_0B9_
FNDA:0,_RNCNvXs7_NtCseR5cf6Ey2ES_11dart_mutant3cliNtB7_4ArgsNtNtCshhX45jbTzd3_12clap_builder6derive4Args23augment_args_for_updates_0B9_
FNDA:0,_RNvMNtCseR5cf6Ey2ES_11dart_mutant3cliNtB2_4Args13is_ai_enabled
FNDA:0,_RNvMNtCseR5cf6Ey2ES_11dart_mutant3cliNtB2_4Args14get_ai_api_key
FNDA:0,_RNvNtCseR5cf6Ey2ES_11dart_mutant3cli8num_cpus
FNDA:0,_RNCINvNvXs7_NtCshkVzQuBAxZ5_11dart_mutant3cliNtBa_4ArgsNtNtCshhX45jbTzd3_12clap_builder6derive4Args12augment_args12iter_to_valsppE0Bc_
FNDA:0,_RNCINvNvXs7_NtCshkVzQuBAxZ5_11dart_mutant3cliNtBa_4ArgsNtNtCshhX45jbTzd3_12clap_builder6derive4Args23augment_args_for_update12iter_to_valsppE0Bc_
FNDA:0,_RNCNCNvXs7_NtCshkVzQuBAxZ5_11dart_mutant3cliNtB9_4ArgsNtNtCshhX45jbTzd3_12clap_builder6derive4Args12augment_args00Bb_
FNDA:0,_RNCNCNvXs7_NtCshkVzQuBAxZ5_11dart_mutant3cliNtB9_4ArgsNtNtCshhX45jbTzd3_12clap_builder6derive4Args23augment_args_for_update00Bb_
FNDA:0,_RNCNvMNtCshkVzQuBAxZ5_11dart_mutant3cliNtB4_4Args14get_ai_api_key0B6_
FNDA:0,_RNCNvNtCshkVzQuBAxZ5_11dart_mutant3cli8num_cpus0B5_
FNDA:0,_RNCNvXs6_NtCshkVzQuBAxZ5_11dart_mutant3cliNtB7_4ArgsNtNtCshhX45jbTzd3_12clap_builder6derive14FromArgMatches20from_arg_matches_mut0B9_
FNDA:0,_RNCNvXs6_NtCshkVzQuBAxZ5_11dart_mutant3cliNtB7_4ArgsNtNtCshhX45jbTzd3_12clap_builder6derive14FromArgMatches20from_arg_matches_muts0_0B9_
FNDA:0,_RNCNvXs6_NtCshkVzQuBAxZ5_11dart_mutant3cliNtB7_4ArgsNtNtCshhX45jbTzd3_12clap_builder6derive14FromArgMatches20from_arg_matches_muts1_0B9_
FNDA:0,_RNCNvXs6_NtCshkVzQuBAxZ5_11dart_mutant3cliNtB7_4ArgsNtNtCshhX45jbTzd3_12clap_builder6derive14FromArgMatches20from_arg_matches_muts2_0B9_
FNDA:0,_RNCNvXs6_NtCshkVzQuBAxZ5_11dart_mutant3cliNtB7_4ArgsNtNtCshhX45jbTzd3_12clap_builder6derive14FromArgMatches20from_arg_matches_muts3_0B9_
FNDA:0,_RNCNvXs6_NtCshkVzQuBAxZ5_11dart_mutant3cliNtB7_4ArgsNtNtCshhX45jbTzd3_12clap_builder6derive14FromArgMatches20from_arg_matches_muts4_0B9_
FNDA:0,_RNCNvXs6_NtCshkVzQuBAxZ5_11dart_mutant3cliNtB7_4ArgsNtNtCshhX45jbTzd3_12clap_builder6derive14FromArgMatches20from_arg_matches_muts5_0B9_
FNDA:0,_RNCNvXs6_NtCshkVzQuBAxZ5_11dart_mutant3cliNtB7_4ArgsNtNtCshhX45jbTzd3_12clap_builder6derive14FromArgMatches20from_arg_matches_muts6_0B9_
FNDA:0,_RNCNvXs6_NtCshkVzQuBAxZ5_11dart_mutant3cliNtB7_4ArgsNtNtCshhX45jbTzd3_12clap_builder6derive14FromArgMatches20from_arg_matches_muts7_0B9_
FNDA:0,_RNCNvXs6_NtCshkVzQuBAxZ5_11dart_mutant3cliNtB7_4ArgsNtNtCshhX45jbTzd3_12clap_builder6derive14FromArgMatches20from_arg_matches_muts8_0B9_
FNDA:0,_RNCNvXs6_NtCshkVzQuBAxZ5_11dart_mutant3cliNtB7_4ArgsNtNtCshhX45jbTzd3_12clap_builder6derive14FromArgMatches20from_arg_matches_muts9_0B9_
FNDA:0,_RNCNvXs6_NtCshkVzQuBAxZ5_11dart_mutant3cliNtB7_4ArgsNtNtCshhX45jbTzd3_12clap_builder6derive14FromArgMatches20from_arg_matches_muts_0B9_
FNDA:0,_RNCNvXs6_NtCshkVzQuBAxZ5_11dart_mutant3cliNtB7_4ArgsNtNtCshhX45jbTzd3_12clap_builder6derive14FromArgMatches20from_arg_matches_mutsa_0B9_
FNDA:0,_RNCNvXs6_NtCshkVzQuBAxZ5_11dart_mutant3cliNtB7_4ArgsNtNtCshhX45jbTzd3_12clap_builder6derive14FromArgMatches20from_arg_matches_mutsb_0B9_
FNDA:0,_RNCNvXs6_NtCshkVzQuBAxZ5_11dart_mutant3cliNtB7_4ArgsNtNtCshhX45jbTzd3_12clap_builder6derive14FromArgMatches20from_arg_matches_mutsc_0B9_
FNDA:0,_RNCNvXs6_NtCshkVzQuBAxZ5_11dart_mutant3cliNtB7_4ArgsNtNtCshhX45jbTzd3_12clap_builder6derive14FromArgMatches20from_arg_matches_mutsd_0B9_
FNDA:0,_RNCNvXs6_NtCshkVzQuBAxZ5_11dart_mutant3cliNtB7_4ArgsNtNtCshhX45jbTzd3_12clap_builder6derive14FromArgMatches20from_arg_matches_mutse_0B9_
FNDA:0,_RNCNvXs6_NtCshkVzQuBAxZ5_11dart_mutant3cliNtB7_4ArgsNtNtCshhX45jbTzd3_12clap_builder6derive14FromArgMatches20from_arg_matches_mutsf_0B9_
FNDA:0,_RNCNvXs6_NtCshkVzQuBAxZ5_11dart_mutant3cliNtB7_4ArgsNtNtCshhX45jbTzd3_12clap_builder6derive14FromArgMatches20from_arg_matches_mutsg_0B9_
FNDA:0,_RNCNvXs6_NtCshkVzQuBAxZ5_11dart_mutant3cliNtB7_4ArgsNtNtCshhX45jbTzd3_12clap_builder6derive14FromArgMatches20from_arg_matches_mutsh_0B9_
FNDA:0,_RNCNvXs6_NtCshkVzQuBAxZ5_11dart_mutant3cliNtB7_4ArgsNtNtCshhX45jbTzd3_12clap_builder6derive14FromArgMatches20from_arg_matches_mutsi_0B9_
FNDA:0,_RNCNvXs6_NtCshkVzQuBAxZ5_11dart_mutant3cliNtB7_4ArgsNtNtCshhX45jbTzd3_12clap_builder6derive14FromArgMatches20from_arg_matches_mutsj_0B9_
FNDA:0,_RNCNvXs6_NtCshkVzQuBAxZ5_11dart_mutant3cliNtB7_4ArgsNtNtCshhX45jbTzd3_12clap_builder6derive14FromArgMatches20from_arg_matches_mutsk_0B9_
FNDA:0,_RNCNvXs6_NtCshkVzQuBAxZ5_11dart_mutant3cliNtB7_4ArgsNtNtCshhX45jbTzd3_12clap_builder6derive14FromArgMatches20from_arg_matches_mutsl_0B9_
FNDA:0,_RNCNvXs6_NtCshkVzQuBAxZ5_11dart_mutant3cliNtB7_4ArgsNtNtCshhX45jbTzd3_12clap_builder6derive14FromArgMatches27update_from_arg_matches_mut0B9_
FNDA:0,_RNCNvXs6_NtCshkVzQuBAxZ5_11dart_mutant3cliNtB7_4ArgsNtNtCshhX45jbTzd3_12clap_builder6derive14FromArgMatches27update_from_arg_matches_muts0_0B9_
FNDA:0,_RNCNvXs6_NtCshkVzQuBAxZ5_11dart_mutant3cliNtB7_4ArgsNtNtCshhX45jbTzd3_12clap_builder6derive14FromArgMatches27update_from_arg_matches_muts1_0B9_
FNDA:0,_RNCNvXs6_NtCshkVzQuBAxZ5_11dart_mutant3cliNtB7_4ArgsNtNtCshhX45jbTzd3_12clap_builder6derive14FromArgMatches27update_from_arg_matches_muts2_0B9_
FNDA:0,_RNCNvXs6_NtCshkVzQuBAxZ5_11dart_mutant3cliNtB7_4ArgsNtNtCshhX45jbTzd3_12clap_builder6derive14FromArgMatches27update_from_arg_matches_muts3_0B9_
FNDA:0,_RNCNvXs6_NtCshkVzQuBAxZ5_11dart_mutant3cliNtB7_4ArgsNtNtCshhX45jbTzd3_12clap_builder6derive14FromArgMatches27update_from_arg_matches_muts4_0B9_
FNDA:0,_RNCNvXs6_NtCshkVzQuBAxZ5_11dart_mutant3cliNtB7_4ArgsNtNtCshhX45jbTzd3_12clap_builder6derive14FromArgMatches27update_from_arg_matches_muts5_0B9_
FNDA:0,_RNCNvXs6_NtCshkVzQuBAxZ5_11dart_mutant3cliNtB7_4ArgsNtNtCshhX45jbTzd3_12clap_builder6derive14FromArgMatches27update_from_arg_matches_muts6_0B9_
FNDA:0,_RNCNvXs6_NtCshkVzQuBAxZ5_11dart_mutant3cliNtB7_4ArgsNtNtCshhX45jbTzd3_12clap_builder6derive14FromArgMatches27update_from_arg_matches_muts7_0B9_
FNDA:0,_RNCNvXs6_NtCshkVzQuBAxZ5_11dart_mutant3cliNtB7_4ArgsNtNtCshhX45jbTzd3_12clap_builder6derive14FromArgMatches27update_from_arg_matches_muts8_0B9_
FNDA:0,_RNCNvXs6_NtCshkVzQuBAxZ5_11dart_mutant3cliNtB7_4ArgsNtNtCshhX45jbTzd3_12clap_builder6derive14FromArgMatches27update_from_arg_matches_muts9_0B9_
FNDA:0,_RNCNvXs6_NtCshkVzQuBAxZ5_11dart_mutant3cliNtB7_4ArgsNtNtCshhX45jbTzd3_12clap_builder6derive14FromArgMatches27update_from_arg_matches_muts_0B9_
FNDA:0,_RNCNvXs6_NtCshkVzQuBAxZ5_11dart_mutant3cliNtB7_4ArgsNtNtCshhX45jbTzd3_12clap_builder6derive14FromArgMatches27update_from_arg_matches_mutsa_0B9_
FNDA:0,_RNCNvXs6_NtCshkVzQuBAxZ5_11dart_mutant3cliNtB7_4ArgsNtNtCshhX45jbTzd3_12clap_builder6derive14FromArgMatches27update_from_arg_matches_mutsb_0B9_
FNDA:0,_RNCNvXs6_NtCshkVzQuBAxZ5_11dart_mutant3cliNtB7_4ArgsNtNtCshhX45jbTzd3_12clap_builder6derive14FromArgMatches27update_from_arg_matches_mutsc_0B9_
FNDA:0,_RNCNvXs6_NtCshkVzQuBAxZ5_11dart_mutant3cliNtB7_4ArgsNtNtCshhX45jbTzd3_12clap_builder6derive14FromArgMatches27update_from_arg_matches_mutsd_0B9_
FNDA:0,_RNCNvXs6_NtCshkVzQuBAxZ5_11dart_mutant3cliNtB7_4ArgsNtNtCshhX45jbTzd3_12clap_builder6derive14FromArgMatches27update_from_arg_matches_mutse_0B9_
FNDA:0,_RNCNvXs6_NtCshkVzQuBAxZ5_11dart_mutant3cliNtB7_4ArgsNtNtCshhX45jbTzd3_12clap_builder6derive14FromArgMatches27update_from_arg_matches_mutsf_0B9_
FNDA:0,_RNCNvXs6_NtCshkVzQuBAxZ5_11dart_mutant3cliNtB7_4ArgsNtNtCshhX45jbTzd3_12clap_builder6derive14FromArgMatches27update_from_arg_matches_mutsg_0B9_
FNDA:0,_RNCNvXs6_NtCshkVzQuBAxZ5_11dart_mutant3cliNtB7_4ArgsNtNtCshhX45jbTzd3_12clap_builder6derive14FromArgMatches27update_from_arg_matches_mutsh_0B9_
FNDA:0,_RNCNvXs6_NtCshkVzQuBAxZ5_11dart_mutant3cliNtB7_4ArgsNtNtCshhX45jbTzd3_12clap_builder6derive14FromArgMatches27update_from_arg_matches_mutsi_0B9_
FNDA:0,_RNCNvXs6_NtCshkVzQuBAxZ5_11dart_mutant3cliNtB7_4ArgsNtNtCshhX45jbTzd3_12clap_builder6derive14FromArgMatches27update_from_arg_matches_mutsj_0B9_
FNDA:0,_RNCNvXs6_NtCshkVzQuBAxZ5_11dart_mutant3cliNtB7_4ArgsNtNtCshhX45jbTzd3_12clap_builder6derive14FromArgMatches27update_from_arg_matches_mutsk_0B9_
FNDA:0,_RNCNvXs6_NtCshkVzQuBAxZ5_11dart_mutant3cliNtB7_4ArgsNtNtCshhX45jbTzd3_12clap_builder6derive14FromArgMatches27update_from_arg_matches_mutsl_0B9_
FNDA:0,_RNCNvXs7_NtCshkVzQuBAxZ5_11dart_mutant3cliNtB7_4ArgsNtNtCshhX45jbTzd3_12clap_builder6derive4Args12augment_argss0_0B9_
FNDA:0,_RNCNvXs7_NtCshkVzQuBAxZ5_11dart_mutant3cliNtB7_4ArgsNtNtCshhX45jbTzd3_12clap_builder6derive4Args12augment_argss_0B9_
FNDA:0,_RNCNvXs7_NtCshkVzQuBAxZ5_11dart_mutant3cliNtB7_4ArgsNtNtCshhX45jbTzd3_12clap_builder6derive4Args23augment_args_for_updates0_0B9_
FNDA:0,_RNCNvXs7_NtCshkVzQuBAxZ5_11dart_mutant3cliNtB7_4ArgsNtNtCshhX45jbTzd3_12clap_builder6derive4Args23augment_args_for_updates_0B9_
FNDA:0,_RNvMNtCshkVzQuBAxZ5_11dart_mutant3cliNtB2_4Args13is_ai_enabled
FNDA:0,_RNvMNtCshkVzQuBAxZ5_11dart_mutant3cliNtB2_4Args14get_ai_api_key
FNDA:0,_RNvNtCshkVzQuBAxZ5_11dart_mutant3cli8num_cpus
FNF:32
FNH:0
DA:61,0
DA:65,0
DA:68,0
DA:76,0
DA:79,0
DA:80,0
DA:84,0
DA:88,0
DA:92,0
DA:96,0
DA:100,0
DA:104,0
DA:108,0
DA:116,0
DA:124,0
DA:128,0
DA:132,0
DA:137,0
DA:145,0
DA:149,0
DA:153,0
DA:157,0
DA:158,0
DA:162,0
DA:166,0
DA:170,0
DA:174,0
DA:177,0
DA:178,0
DA:179,0
DA:180,0
DA:181,0
DA:185,0
DA:186,0
DA:187,0
DA:189,0
DA:190,0
DA:191,0
DA:192,0
DA:193,0
DA:194,0
DA:195,0
BRF:0
BRH:0
LF:45
LH:0
end_of_record
SF:/Users/christianfindlay/Documents/Code/dart_mutant/src/main.rs
FN:50,_RNvCseR5cf6Ey2ES_11dart_mutant12print_banner
FN:243,_RNvCseR5cf6Ey2ES_11dart_mutant13print_summary
FN:218,_RNvCseR5cf6Ey2ES_11dart_mutant14create_spinner
FN:291,_RNvCseR5cf6Ey2ES_11dart_mutant16create_score_bar
FN:231,_RNvCseR5cf6Ey2ES_11dart_mutant19create_progress_bar
FN:63,_RNvCseR5cf6Ey2ES_11dart_mutant20run_mutation_testing
FN:21,_RNvCseR5cf6Ey2ES_11dart_mutant4main
FN:223,_RNCNvCseR5cf6Ey2ES_11dart_mutant14create_spinner0B3_
FN:236,_RNCNvCseR5cf6Ey2ES_11dart_mutant19create_progress_bar0B3_
FN:63,_RNCNvCseR5cf6Ey2ES_11dart_mutant20run_mutation_testing0B3_
FN:21,_RNCNvCseR5cf6Ey2ES_11dart_mutant4main0B3_
FN:223,_RNCNvCshkVzQuBAxZ5_11dart_mutant14create_spinner0B3_
FN:236,_RNCNvCshkVzQuBAxZ5_11dart_mutant19create_progress_bar0B3_
FN:63,_RNCNvCshkVzQuBAxZ5_11dart_mutant20run_mutation_testing0B3_
FN:21,_RNCNvCshkVzQuBAxZ5_11dart_mutant4main0B3_
FN:50,_RNvCshkVzQuBAxZ5_11dart_mutant12print_banner
FN:243,_RNvCshkVzQuBAxZ5_11dart_mutant13print_summary
FN:218,_RNvCshkVzQuBAxZ5_11dart_mutant14create_spinner
FN:291,_RNvCshkVzQuBAxZ5_11dart_mutant16create_score_bar
FN:231,_RNvCshkVzQuBAxZ5_11dart_mutant19create_progress_bar
FN:63,_RNvCshkVzQuBAxZ5_11dart_mutant20run_mutation_testing
FN:21,_RNvCshkVzQuBAxZ5_11dart_mutant4main
FNDA:0,_RNvCseR5cf6Ey2ES_11dart_mutant12print_banner
FNDA:0,_RNvCseR5cf6Ey2ES_11dart_mutant13print_summary
FNDA:0,_RNvCseR5cf6Ey2ES_11dart_mutant14create_spinner
FNDA:0,_RNvCseR5cf6Ey2ES_11dart_mutant16create_score_bar
FNDA:0,_RNvCseR5cf6Ey2ES_11dart_mutant19create_progress_bar
FNDA:0,_RNvCseR5cf6Ey2ES_11dart_mutant20run_mutation_testing
FNDA:0,_RNvCseR5cf6Ey2ES_11dart_mutant4main
FNDA:0,_RNCNvCseR5cf6Ey2ES_11dart_mutant14create_spinner0B3_
FNDA:0,_RNCNvCseR5cf6Ey2ES_11dart_mutant19create_progress_bar0B3_
FNDA:0,_RNCNvCseR5cf6Ey2ES_11dart_mutant20run_mutation_testing0B3_
FNDA:0,_RNCNvCseR5cf6Ey2ES_11dart_mutant4main0B3_
FNDA:0,_RNCNvCshkVzQuBAxZ5_11dart_mutant14create_spinner0B3_
FNDA:0,_RNCNvCshkVzQuBAxZ5_11dart_mutant19create_progress_bar0B3_
FNDA:0,_RNCNvCshkVzQuBAxZ5_11dart_mutant20run_mutation_testing0B3_
FNDA:0,_RNCNvCshkVzQuBAxZ5_11dart_mutant4main0B3_
FNDA:0,_RNvCshkVzQuBAxZ5_11dart_mutant12print_banner
FNDA:0,_RNvCshkVzQuBAxZ5_11dart_mutant13print_summary
FNDA:0,_RNvCshkVzQuBAxZ5_11dart_mutant14create_spinner
FNDA:0,_RNvCshkVzQuBAxZ5_11dart_mutant16create_score_bar
FNDA:0,_RNvCshkVzQuBAxZ5_11dart_mutant19create_progress_bar
FNDA:0,_RNvCshkVzQuBAxZ5_11dart_mutant20run_mutation_testing
FNDA:0,_RNvCshkVzQuBAxZ5_11dart_mutant4main
FNF:11
FNH:0
DA:21,0
DA:22,0
DA:23,0
DA:24,0
DA:25,0
DA:26,0
DA:27,0
DA:28,0
DA:29,0
DA:30,0
DA:31,0
DA:32,0
DA:33,0
DA:34,0
DA:35,0
DA:36,0
DA:37,0
DA:38,0
DA:39,0
DA:40,0
DA:41,0
DA:42,0
DA:43,0
DA:44,0
DA:45,0
DA:46,0
DA:47,0
DA:48,0
DA:50,0
DA:55,0
DA:56,0
DA:57,0
DA:58,0
DA:59,0
DA:60,0
DA:61,0
DA:63,0
DA:64,0
DA:65,0
DA:66,0
DA:67,0
DA:68,0
DA:69,0
DA:70,0
DA:71,0
DA:72,0
DA:73,0
DA:74,0
DA:75,0
DA:76,0
DA:77,0
DA:78,0
DA:79,0
DA:80,0
DA:81,0
DA:83,0
DA:84,0
DA:85,0
DA:86,0
DA:88,0
DA:89,0
DA:90,0
DA:91,0
DA:92,0
DA:93,0
DA:94,0
DA:95,0
DA:96,0
DA:97,0
DA:98,0
DA:99,0
DA:100,0
DA:101,0
DA:102,0
DA:103,0
DA:104,0
DA:105,0
DA:106,0
DA:107,0
DA:108,0
DA:109,0
DA:110,0
DA:111,0
DA:112,0
DA:113,0
DA:114,0
DA:115,0
DA:116,0
DA:117,0
DA:119,0
DA:121,0
DA:122,0
DA:123,0
DA:124,0
DA:125,0
DA:126,0
DA:127,0
DA:128,0
DA:131,0
DA:132,0
DA:134,0
DA:138,0
DA:139,0
DA:140,0
DA:143,0
DA:144,0
DA:145,0
DA:146,0
DA:147,0
DA:148,0
DA:149,0
DA:150,0
DA:151,0
DA:152,0
DA:153,0
DA:154,0
DA:155,0
DA:156,0
DA:157,0
DA:158,0
DA:159,0
DA:162,0
DA:164,0
DA:165,0
DA:166,0
DA:167,0
DA:168,0
DA:170,0
DA:171,0
DA:172,0
DA:173,0
DA:174,0
DA:175,0
DA:176,0
DA:177,0
DA:179,0
DA:180,0
DA:181,0
DA:182,0
DA:183,0
DA:184,0
DA:185,0
DA:189,0
DA:190,0
DA:191,0
DA:192,0
DA:193,0
DA:194,0
DA:195,0
DA:196,0
DA:197,0
DA:198,0
DA:199,0
DA:200,0
DA:201,0
DA:203,0
DA:204,0
DA:205,0
DA:206,0
DA:208,0
DA:209,0
DA:210,0
DA:211,0
DA:213,0
DA:214,0
DA:215,0
DA:216,0
DA:218,0
DA:219,0
DA:220,0
DA:221,0
DA:222,0
DA:223,0
DA:224,0
DA:225,0
DA:226,0
DA:227,0
DA:228,0
DA:229,0
DA:231,0
DA:232,0
DA:233,0
DA:234,0
DA:235,0
DA:236,0
DA:237,0
DA:238,0
DA:239,0
DA:240,0
DA:241,0
DA:243,0
DA:244,0
DA:245,0
DA:246,0
DA:247,0
DA:248,0
DA:249,0
DA:250,0
DA:251,0
DA:254,0
DA:255,0
DA:256,0
DA:257,0
DA:259,0
DA:262,0
DA:263,0
DA:264,0
DA:265,0
DA:266,0
DA:267,0
DA:268,0
DA:269,0
DA:273,0
DA:274,0
DA:275,0
DA:276,0
DA:277,0
DA:278,0
DA:279,0
DA:280,0
DA:281,0
DA:282,0
DA:283,0
DA:284,0
DA:285,0
DA:286,0
DA:287,0
DA:288,0
DA:289,0
DA:291,0
DA:292,0
DA:293,0
DA:294,0
DA:295,0
DA:296,0
DA:297,0
DA:298,0
DA:299,0
DA:300,0
DA:301,0
DA:303,0
DA:305,0
BRF:0
BRH:0
LF:267
LH:0
end_of_record
SF:/Users/christianfindlay/Documents/Code/dart_mutant/src/mutation/mod.rs
FN:73,_RNvMNtCseR5cf6Ey2ES_11dart_mutant8mutationNtB2_8Mutation3new
FN:117,_RNvMNtCseR5cf6Ey2ES_11dart_mutant8mutationNtB2_8Mutation5apply
FN:242,_RNvMs_NtCseR5cf6Ey2ES_11dart_mutant8mutationNtB4_16MutationOperator4name
FN:347,_RNvNtCseR5cf6Ey2ES_11dart_mutant8mutation16sample_mutations
FN:73,_RNvMNtCshkVzQuBAxZ5_11dart_mutant8mutationNtB2_8Mutation3new
FN:117,_RNvMNtCshkVzQuBAxZ5_11dart_mutant8mutationNtB2_8Mutation5apply
FN:242,_RNvMs_NtCshkVzQuBAxZ5_11dart_mutant8mutationNtB4_16MutationOperator4name
FN:347,_RNvNtCshkVzQuBAxZ5_11dart_mutant8mutation16sample_mutations
FNDA:0,_RNvMNtCseR5cf6Ey2ES_11dart_mutant8mutationNtB2_8Mutation3new
FNDA:0,_RNvMNtCseR5cf6Ey2ES_11dart_mutant8mutationNtB2_8Mutation5apply
FNDA:0,_RNvMs_NtCseR5cf6Ey2ES_11dart_mutant8mutationNtB4_16MutationOperator4name
FNDA:0,_RNvNtCseR5cf6Ey2ES_11dart_mutant8mutation16sample_mutations
FNDA:0,_RNvMNtCshkVzQuBAxZ5_11dart_mutant8mutationNtB2_8Mutation3new
FNDA:0,_RNvMNtCshkVzQuBAxZ5_11dart_mutant8mutationNtB2_8Mutation5apply
FNDA:0,_RNvMs_NtCshkVzQuBAxZ5_11dart_mutant8mutationNtB4_16MutationOperator4name
FNDA:0,_RNvNtCshkVzQuBAxZ5_11dart_mutant8mutation16sample_mutations
FNF:4
FNH:0
DA:73,0
DA:74,0
DA:75,0
DA:76,0
DA:77,0
DA:78,0
DA:79,0
DA:80,0
DA:81,0
DA:82,0
DA:83,0
DA:84,0
DA:85,0
DA:86,0
DA:87,0
DA:88,0
DA:89,0
DA:90,0
DA:91,0
DA:92,0
DA:93,0
DA:94,0
DA:95,0
DA:96,0
DA:97,0
DA:98,0
DA:99,0
DA:100,0
DA:101,0
DA:102,0
DA:103,0
DA:104,0
DA:105,0
DA:106,0
DA:107,0
DA:108,0
DA:109,0
DA:110,0
DA:111,0
DA:112,0
DA:113,0
DA:114,0
DA:117,0
DA:118,0
DA:119,0
DA:120,0
DA:121,0
DA:122,0
DA:123,0
DA:124,0
DA:126,0
DA:127,0
DA:128,0
DA:129,0
DA:130,0
DA:131,0
DA:132,0
DA:133,0
DA:134,0
DA:242,0
DA:243,0
DA:245,0
DA:246,0
DA:247,0
DA:248,0
DA:249,0
DA:250,0
DA:251,0
DA:252,0
DA:253,0
DA:254,0
DA:255,0
DA:256,0
DA:257,0
DA:258,0
DA:259,0
DA:262,0
DA:263,0
DA:264,0
DA:265,0
DA:266,0
DA:269,0
DA:270,0
DA:271,0
DA:272,0
DA:273,0
DA:274,0
DA:275,0
DA:276,0
DA:277,0
DA:278,0
DA:279,0
DA:280,0
DA:281,0
DA:282,0
DA:285,0
DA:286,0
DA:287,0
DA:290,0
DA:291,0
DA:294,0
DA:295,0
DA:296,0
DA:297,0
DA:298,0
DA:299,0
DA:302,0
DA:303,0
DA:304,0
DA:305,0
DA:308,0
DA:309,0
DA:310,0
DA:311,0
DA:312,0
DA:315,0
DA:316,0
DA:319,0
DA:320,0
DA:321,0
DA:322,0
DA:323,0
DA:326,0
DA:327,0
DA:328,0
DA:329,0
DA:330,0
DA:331,0
DA:334,0
DA:335,0
DA:338,0
DA:341,0
DA:343,0
DA:347,0
DA:349,0
DA:350,0
DA:351,0
DA:352,0
DA:353,0
DA:354,0
DA:355,0
DA:356,0
DA:357,0
DA:358,0
DA:359,0
BRF:0
BRH:0
LF:145
LH:0
end_of_record
SF:/Users/christianfindlay/Documents/Code/dart_mutant/src/parser/mod.rs
FN:64,_RNvNtCseR5cf6Ey2ES_11dart_mutant6parser10parse_dart
FN:148,_RNvNtCseR5cf6Ey2ES_11dart_mutant6parser13get_node_text
FN:13,_RNvNtCseR5cf6Ey2ES_11dart_mutant6parser19discover_dart_files
FN:424,_RNvNtCseR5cf6Ey2ES_11dart_mutant6parser20find_string_mutation
FN:263,_RNvNtCseR5cf6Ey2ES_11dart_mutant6parser20find_unary_mutations
FN:152,_RNvNtCseR5cf6Ey2ES_11dart_mutant6parser21find_binary_mutations
FN:234,_RNvNtCseR5cf6Ey2ES_11dart_mutant6parser22find_logical_mutations
FN:86,_RNvNtCseR5cf6Ey2ES_11dart_mutant6parser22find_mutations_in_node
FN:76,_RNvNtCseR5cf6Ey2ES_11dart_mutant6parser22find_mutations_in_tree
FN:315,_RNvNtCseR5cf6Ey2ES_11dart_mutant6parser23create_boolean_mutation
FN:51,_RNvNtCseR5cf6Ey2ES_11dart_mutant6parser24parse_and_find_mutations
FN:187,_RNvNtCseR5cf6Ey2ES_11dart_mutant6parser25find_comparison_mutations
FN:383,_RNvNtCseR5cf6Ey2ES_11dart_mutant6parser27find_if_statement_mutations
FN:335,_RNvNtCseR5cf6Ey2ES_11dart_mutant6parser29find_null_coalescing_mutation
FN:359,_RNvNtCseR5cf6Ey2ES_11dart_mutant6parser31find_null_aware_access_mutation
FN:30,_RNCNCNvNtCseR5cf6Ey2ES_11dart_mutant6parser19discover_dart_filess0_00B7_
FN:19,_RNCNvNtCseR5cf6Ey2ES_11dart_mutant6parser19discover_dart_files0B5_
FN:28,_RNCNvNtCseR5cf6Ey2ES_11dart_mutant6parser19discover_dart_filess0_0B5_
FN:24,_RNCNvNtCseR5cf6Ey2ES_11dart_mutant6parser19discover_dart_filess_0B5_
FN:53,_RNCNvNtCseR5cf6Ey2ES_11dart_mutant6parser24parse_and_find_mutations0B5_
FN:64,_RNvNtCshkVzQuBAxZ5_11dart_mutant6parser10parse_dart
FN:475,_RNvNtNtCshkVzQuBAxZ5_11dart_mutant6parser5testss_22test_parse_simple_dart
FN:30,_RNCNCNvNtCshkVzQuBAxZ5_11dart_mutant6parser19discover_dart_filess0_00B7_
FN:19,_RNCNvNtCshkVzQuBAxZ5_11dart_mutant6parser19discover_dart_files0B5_
FN:28,_RNCNvNtCshkVzQuBAxZ5_11dart_mutant6parser19discover_dart_filess0_0B5_
FN:24,_RNCNvNtCshkVzQuBAxZ5_11dart_mutant6parser19discover_dart_filess_0B5_
FN:53,_RNCNvNtCshkVzQuBAxZ5_11dart_mutant6parser24parse_and_find_mutations0B5_
FN:148,_RNvNtCshkVzQuBAxZ5_11dart_mutant6parser13get_node_text
FN:13,_RNvNtCshkVzQuBAxZ5_11dart_mutant6parser19discover_dart_files
FN:424,_RNvNtCshkVzQuBAxZ5_11dart_mutant6parser20find_string_mutation
FN:263,_RNvNtCshkVzQuBAxZ5_11dart_mutant6parser20find_unary_mutations
FN:152,_RNvNtCshkVzQuBAxZ5_11dart_mutant6parser21find_binary_mutations
FN:234,_RNvNtCshkVzQuBAxZ5_11dart_mutant6parser22find_logical_mutations
FN:86,_RNvNtCshkVzQuBAxZ5_11dart_mutant6parser22find_mutations_in_node
FN:76,_RNvNtCshkVzQuBAxZ5_11dart_mutant6parser22find_mutations_in_tree
FN:315,_RNvNtCshkVzQuBAxZ5_11dart_mutant6parser23create_boolean_mutation
FN:51,_RNvNtCshkVzQuBAxZ5_11dart_mutant6parser24parse_and_find_mutations
FN:187,_RNvNtCshkVzQuBAxZ5_11dart_mutant6parser25find_comparison_mutations
FN:383,_RNvNtCshkVzQuBAxZ5_11dart_mutant6parser27find_if_statement_mutations
FN:335,_RNvNtCshkVzQuBAxZ5_11dart_mutant6parser29find_null_coalescing_mutation
FN:359,_RNvNtCshkVzQuBAxZ5_11dart_mutant6parser31find_null_aware_access_mutation
FNDA:0,_RNvNtCseR5cf6Ey2ES_11dart_mutant6parser10parse_dart
FNDA:0,_RNvNtCseR5cf6Ey2ES_11dart_mutant6parser13get_node_text
FNDA:0,_RNvNtCseR5cf6Ey2ES_11dart_mutant6parser19discover_dart_files
FNDA:0,_RNvNtCseR5cf6Ey2ES_11dart_mutant6parser20find_string_mutation
FNDA:0,_RNvNtCseR5cf6Ey2ES_11dart_mutant6parser20find_unary_mutations
FNDA:0,_RNvNtCseR5cf6Ey2ES_11dart_mutant6parser21find_binary_mutations
FNDA:0,_RNvNtCseR5cf6Ey2ES_11dart_mutant6parser22find_logical_mutations
FNDA:0,_RNvNtCseR5cf6Ey2ES_11dart_mutant6parser22find_mutations_in_node
FNDA:0,_RNvNtCseR5cf6Ey2ES_11dart_mutant6parser22find_mutations_in_tree
FNDA:0,_RNvNtCseR5cf6Ey2ES_11dart_mutant6parser23create_boolean_mutation
FNDA:0,_RNvNtCseR5cf6Ey2ES_11dart_mutant6parser24parse_and_find_mutations
FNDA:0,_RNvNtCseR5cf6Ey2ES_11dart_mutant6parser25find_comparison_mutations
FNDA:0,_RNvNtCseR5cf6Ey2ES_11dart_mutant6parser27find_if_statement_mutations
FNDA:0,_RNvNtCseR5cf6Ey2ES_11dart_mutant6parser29find_null_coalescing_mutation
FNDA:0,_RNvNtCseR5cf6Ey2ES_11dart_mutant6parser31find_null_aware_access_mutation
FNDA:0,_RNCNCNvNtCseR5cf6Ey2ES_11dart_mutant6parser19discover_dart_filess0_00B7_
FNDA:0,_RNCNvNtCseR5cf6Ey2ES_11dart_mutant6parser19discover_dart_files0B5_
FNDA:0,_RNCNvNtCseR5cf6Ey2ES_11dart_mutant6parser19discover_dart_filess0_0B5_
FNDA:0,_RNCNvNtCseR5cf6Ey2ES_11dart_mutant6parser19discover_dart_filess_0B5_
FNDA:0,_RNCNvNtCseR5cf6Ey2ES_11dart_mutant6parser24parse_and_find_mutations0B5_
FNDA:1,_RNvNtCshkVzQuBAxZ5_11dart_mutant6parser10parse_dart
FNDA:1,_RNvNtNtCshkVzQuBAxZ5_11dart_mutant6parser5testss_22test_parse_simple_dart
FNDA:0,_RNCNCNvNtCshkVzQuBAxZ5_11dart_mutant6parser19discover_dart_filess0_00B7_
FNDA:0,_RNCNvNtCshkVzQuBAxZ5_11dart_mutant6parser19discover_dart_files0B5_
FNDA:0,_RNCNvNtCshkVzQuBAxZ5_11dart_mutant6parser19discover_dart_filess0_0B5_
FNDA:0,_RNCNvNtCshkVzQuBAxZ5_11dart_mutant6parser19discover_dart_filess_0B5_
FNDA:0,_RNCNvNtCshkVzQuBAxZ5_11dart_mutant6parser24parse_and_find_mutations0B5_
FNDA:0,_RNvNtCshkVzQuBAxZ5_11dart_mutant6parser13get_node_text
FNDA:0,_RNvNtCshkVzQuBAxZ5_11dart_mutant6parser19discover_dart_files
FNDA:0,_RNvNtCshkVzQuBAxZ5_11dart_mutant6parser20find_string_mutation
FNDA:0,_RNvNtCshkVzQuBAxZ5_11dart_mutant6parser20find_unary_mutations
FNDA:0,_RNvNtCshkVzQuBAxZ5_11dart_mutant6parser21find_binary_mutations
FNDA:0,_RNvNtCshkVzQuBAxZ5_11dart_mutant6parser22find_logical_mutations
FNDA:0,_RNvNtCshkVzQuBAxZ5_11dart_mutant6parser22find_mutations_in_node
FNDA:0,_RNvNtCshkVzQuBAxZ5_11dart_mutant6parser22find_mutations_in_tree
FNDA:0,_RNvNtCshkVzQuBAxZ5_11dart_mutant6parser23create_boolean_mutation
FNDA:0,_RNvNtCshkVzQuBAxZ5_11dart_mutant6parser24parse_and_find_mutations
FNDA:0,_RNvNtCshkVzQuBAxZ5_11dart_mutant6parser25find_comparison_mutations
FNDA:0,_RNvNtCshkVzQuBAxZ5_11dart_mutant6parser27find_if_statement_mutations
FNDA:0,_RNvNtCshkVzQuBAxZ5_11dart_mutant6parser29find_null_coalescing_mutation
FNDA:0,_RNvNtCshkVzQuBAxZ5_11dart_mutant6parser31find_null_aware_access_mutation
FNF:21
FNH:2
DA:13,0
DA:14,0
DA:16,0
DA:17,0
DA:18,0
DA:19,0
DA:21,0
DA:22,0
DA:23,0
DA:24,0
DA:25,0
DA:26,0
DA:27,0
DA:28,0
DA:29,0
DA:30,0
DA:31,0
DA:32,0
DA:33,0
DA:34,0
DA:36,0
DA:37,0
DA:38,0
DA:39,0
DA:40,0
DA:41,0
DA:42,0
DA:43,0
DA:44,0
DA:47,0
DA:48,0
DA:51,0
DA:52,0
DA:53,0
DA:55,0
DA:56,0
DA:57,0
DA:58,0
DA:59,0
DA:60,0
DA:61,0
DA:64,1
DA:65,1
DA:66,1
DA:67,1
DA:68,1
DA:70,1
DA:71,1
DA:72,1
DA:73,1
DA:76,0
DA:77,0
DA:78,0
DA:79,0
DA:80,0
DA:81,0
DA:82,0
DA:83,0
DA:84,0
DA:86,0
DA:87,0
DA:88,0
DA:89,0
DA:90,0
DA:91,0
DA:92,0
DA:93,0
DA:94,0
DA:95,0
DA:96,0
DA:97,0
DA:98,0
DA:99,0
DA:101,0
DA:102,0
DA:103,0
DA:105,0
DA:106,0
DA:107,0
DA:110,0
DA:111,0
DA:112,0
DA:115,0
DA:116,0
DA:117,0
DA:120,0
DA:121,0
DA:122,0
DA:124,0
DA:125,0
DA:126,0
DA:129,0
DA:130,0
DA:131,0
DA:134,0
DA:135,0
DA:136,0
DA:138,0
DA:142,0
DA:143,0
DA:144,0
DA:145,0
DA:146,0
DA:148,0
DA:149,0
DA:150,0
DA:152,0
DA:153,0
DA:154,0
DA:155,0
DA:156,0
DA:157,0
DA:158,0
DA:159,0
DA:160,0
DA:161,0
DA:163,0
DA:164,0
DA:165,0
DA:166,0
DA:167,0
DA:168,0
DA:169,0
DA:172,0
DA:173,0
DA:174,0
DA:175,0
DA:176,0
DA:177,0
DA:178,0
DA:179,0
DA:180,0
DA:181,0
DA:182,0
DA:183,0
DA:185,0
DA:187,0
DA:188,0
DA:189,0
DA:190,0
DA:191,0
DA:192,0
DA:193,0
DA:194,0
DA:195,0
DA:197,0
DA:198,0
DA:199,0
DA:200,0
DA:201,0
DA:202,0
DA:203,0
DA:204,0
DA:205,0
DA:206,0
DA:207,0
DA:208,0
DA:209,0
DA:210,0
DA:211,0
DA:212,0
DA:213,0
DA:214,0
DA:215,0
DA:216,0
DA:219,0
DA:220,0
DA:221,0
DA:222,0
DA:223,0
DA:224,0
DA:225,0
DA:226,0
DA:227,0
DA:228,0
DA:229,0
DA:230,0
DA:232,0
DA:234,0
DA:235,0
DA:236,0
DA:237,0
DA:238,0
DA:239,0
DA:240,0
DA:241,0
DA:242,0
DA:244,0
DA:245,0
DA:246,0
DA:247,0
DA:250,0
DA:251,0
DA:252,0
DA:253,0
DA:254,0
DA:255,0
DA:256,0
DA:257,0
DA:258,0
DA:259,0
DA:261,0
DA:263,0
DA:264,0
DA:265,0
DA:266,0
DA:267,0
DA:268,0
DA:269,0
DA:272,0
DA:273,0
DA:274,0
DA:275,0
DA:276,0
DA:277,0
DA:278,0
DA:279,0
DA:280,0
DA:281,0
DA:282,0
DA:283,0
DA:284,0
DA:285,0
DA:288,0
DA:289,0
DA:290,0
DA:291,0
DA:292,0
DA:293,0
DA:294,0
DA:295,0
DA:296,0
DA:297,0
DA:298,0
DA:299,0
DA:300,0
DA:301,0
DA:302,0
DA:303,0
DA:304,0
DA:305,0
DA:306,0
DA:307,0
DA:308,0
DA:309,0
DA:310,0
DA:311,0
DA:312,0
DA:313,0
DA:315,0
DA:316,0
DA:317,0
DA:318,0
DA:320,0
DA:323,0
DA:324,0
DA:325,0
DA:326,0
DA:327,0
DA:328,0
DA:329,0
DA:330,0
DA:331,0
DA:332,0
DA:333,0
DA:335,0
DA:336,0
DA:337,0
DA:338,0
DA:339,0
DA:340,0
DA:342,0
DA:343,0
DA:344,0
DA:345,0
DA:346,0
DA:347,0
DA:348,0
DA:349,0
DA:350,0
DA:351,0
DA:352,0
DA:353,0
DA:354,0
DA:355,0
DA:356,0
DA:357,0
DA:359,0
DA:360,0
DA:361,0
DA:362,0
DA:363,0
DA:364,0
DA:365,0
DA:366,0
DA:367,0
DA:368,0
DA:369,0
DA:370,0
DA:371,0
DA:372,0
DA:373,0
DA:374,0
DA:375,0
DA:376,0
DA:377,0
DA:378,0
DA:379,0
DA:380,0
DA:381,0
DA:383,0
DA:384,0
DA:385,0
DA:386,0
DA:387,0
DA:388,0
DA:389,0
DA:390,0
DA:391,0
DA:392,0
DA:393,0
DA:394,0
DA:395,0
DA:396,0
DA:397,0
DA:398,0
DA:399,0
DA:400,0
DA:401,0
DA:402,0
DA:403,0
DA:404,0
DA:405,0
DA:406,0
DA:407,0
DA:408,0
DA:409,0
DA:410,0
DA:411,0
DA:412,0
DA:413,0
DA:414,0
DA:415,0
DA:416,0
DA:417,0
DA:418,0
DA:419,0
DA:420,0
DA:422,0
DA:424,0
DA:425,0
DA:426,0
DA:427,0
DA:428,0
DA:429,0
DA:430,0
DA:431,0
DA:432,0
DA:433,0
DA:434,0
DA:435,0
DA:437,0
DA:438,0
DA:439,0
DA:440,0
DA:441,0
DA:442,0
DA:443,0
DA:444,0
DA:445,0
DA:446,0
DA:447,0
DA:448,0
DA:449,0
DA:450,0
DA:451,0
DA:452,0
DA:453,0
DA:454,0
DA:455,0
DA:456,0
DA:457,0
DA:458,0
DA:459,0
DA:460,0
DA:461,0
DA:462,0
DA:463,0
DA:464,0
DA:465,0
DA:466,0
DA:467,0
DA:475,1
DA:476,1
DA:477,1
DA:478,1
DA:479,1
DA:480,1
DA:481,1
DA:482,1
DA:483,1
DA:484,1
DA:485,1
DA:486,1
DA:487,1
BRF:0
BRH:0
LF:411
LH:22
end_of_record
SF:/Users/christianfindlay/Documents/Code/dart_mutant/src/report/css.rs
FN:6,_RNvNtNtCseR5cf6Ey2ES_11dart_mutant6report3css14get_report_css
FN:6,_RNvNtNtCshkVzQuBAxZ5_11dart_mutant6report3css14get_report_css
FNDA:0,_RNvNtNtCseR5cf6Ey2ES_11dart_mutant6report3css14get_report_css
FNDA:0,_RNvNtNtCshkVzQuBAxZ5_11dart_mutant6report3css14get_report_css
FNF:1
FNH:0
DA:6,0
DA:7,0
DA:8,0
DA:9,0
DA:10,0
DA:11,0
DA:12,0
DA:13,0
DA:14,0
DA:15,0
DA:16,0
DA:17,0
DA:18,0
DA:19,0
DA:20,0
DA:21,0
DA:22,0
DA:23,0
DA:24,0
DA:25,0
DA:26,0
DA:27,0
DA:28,0
DA:29,0
DA:30,0
DA:31,0
DA:32,0
DA:33,0
DA:34,0
DA:35,0
DA:36,0
DA:37,0
DA:38,0
DA:39,0
DA:40,0
DA:41,0
DA:42,0
DA:43,0
DA:44,0
DA:45,0
DA:46,0
DA:47,0
DA:48,0
DA:49,0
DA:50,0
DA:51,0
DA:52,0
DA:53,0
DA:54,0
DA:55,0
DA:56,0
DA:57,0
DA:58,0
DA:59,0
DA:60,0
DA:61,0
DA:62,0
DA:63,0
DA:64,0
DA:65,0
DA:66,0
DA:67,0
DA:68,0
DA:69,0
DA:70,0
DA:71,0
DA:72,0
DA:73,0
DA:74,0
DA:75,0
DA:76,0
DA:77,0
DA:78,0
DA:79,0
DA:80,0
DA:81,0
DA:82,0
DA:83,0
DA:84,0
DA:85,0
DA:86,0
DA:87,0
DA:88,0
DA:89,0
DA:90,0
DA:91,0
DA:92,0
DA:93,0
DA:94,0
DA:95,0
DA:96,0
DA:97,0
DA:98,0
DA:99,0
DA:100,0
DA:101,0
DA:102,0
DA:103,0
DA:104,0
DA:105,0
DA:106,0
DA:107,0
DA:108,0
DA:109,0
DA:110,0
DA:111,0
DA:112,0
DA:113,0
DA:114,0
DA:115,0
DA:116,0
DA:117,0
DA:118,0
DA:119,0
DA:120,0
DA:121,0
DA:122,0
DA:123,0
DA:124,0
DA:125,0
DA:126,0
DA:127,0
DA:128,0
DA:129,0
DA:130,0
DA:131,0
DA:132,0
DA:133,0
DA:134,0
DA:135,0
DA:136,0
DA:137,0
DA:138,0
DA:139,0
DA:140,0
DA:141,0
DA:142,0
DA:143,0
DA:144,0
DA:145,0
DA:146,0
DA:147,0
DA:148,0
DA:149,0
DA:150,0
DA:151,0
DA:152,0
DA:153,0
DA:154,0
DA:155,0
DA:156,0
DA:157,0
DA:158,0
DA:159,0
DA:160,0
DA:161,0
DA:162,0
DA:163,0
DA:164,0
DA:165,0
DA:166,0
DA:167,0
DA:168,0
DA:169,0
DA:170,0
DA:171,0
DA:172,0
DA:173,0
DA:174,0
DA:175,0
DA:176,0
DA:177,0
DA:178,0
DA:179,0
DA:180,0
DA:181,0
DA:182,0
DA:183,0
DA:184,0
DA:185,0
DA:186,0
DA:187,0
DA:188,0
DA:189,0
DA:190,0
DA:191,0
DA:192,0
DA:193,0
DA:194,0
DA:195,0
DA:196,0
DA:197,0
DA:198,0
DA:199,0
DA:200,0
DA:201,0
DA:202,0
DA:203,0
DA:204,0
DA:205,0
DA:206,0
DA:207,0
DA:208,0
DA:209,0
DA:210,0
DA:211,0
DA:212,0
DA:213,0
DA:214,0
DA:215,0
DA:216,0
DA:217,0
DA:218,0
DA:219,0
DA:220,0
DA:221,0
DA:222,0
DA:223,0
DA:224,0
DA:225,0
DA:226,0
DA:227,0
DA:228,0
DA:229,0
DA:230,0
DA:231,0
DA:232,0
DA:233,0
DA:234,0
DA:235,0
DA:236,0
DA:237,0
DA:238,0
DA:239,0
DA:240,0
DA:241,0
DA:242,0
DA:243,0
DA:244,0
DA:245,0
DA:246,0
DA:247,0
DA:248,0
DA:249,0
DA:250,0
DA:251,0
DA:252,0
DA:253,0
DA:254,0
DA:255,0
DA:256,0
DA:257,0
DA:258,0
DA:259,0
DA:260,0
DA:261,0
DA:262,0
DA:263,0
DA:264,0
DA:265,0
DA:266,0
DA:267,0
DA:268,0
DA:269,0
DA:270,0
DA:271,0
DA:272,0
DA:273,0
DA:274,0
DA:275,0
DA:276,0
DA:277,0
DA:278,0
DA:279,0
DA:280,0
DA:281,0
DA:282,0
DA:283,0
DA:284,0
DA:285,0
DA:286,0
DA:287,0
DA:288,0
DA:289,0
DA:290,0
DA:291,0
DA:292,0
DA:293,0
DA:294,0
DA:295,0
DA:296,0
DA:297,0
DA:298,0
DA:299,0
DA:300,0
DA:301,0
DA:302,0
DA:303,0
DA:304,0
DA:305,0
DA:306,0
DA:307,0
DA:308,0
DA:309,0
DA:310,0
DA:311,0
DA:312,0
DA:313,0
DA:314,0
DA:315,0
DA:316,0
DA:317,0
DA:318,0
DA:319,0
DA:320,0
DA:321,0
DA:322,0
DA:323,0
DA:324,0
DA:325,0
DA:326,0
DA:327,0
DA:328,0
DA:329,0
DA:330,0
DA:331,0
DA:332,0
DA:333,0
DA:334,0
DA:335,0
DA:336,0
DA:337,0
DA:338,0
DA:339,0
DA:340,0
DA:341,0
DA:342,0
DA:343,0
DA:344,0
DA:345,0
DA:346,0
DA:347,0
DA:348,0
DA:349,0
DA:350,0
DA:351,0
DA:352,0
DA:353,0
DA:354,0
DA:355,0
DA:356,0
DA:357,0
DA:358,0
DA:359,0
DA:360,0
DA:361,0
DA:362,0
DA:363,0
DA:364,0
DA:365,0
DA:366,0
DA:367,0
DA:368,0
DA:369,0
DA:370,0
DA:371,0
DA:372,0
DA:373,0
DA:374,0
DA:375,0
DA:376,0
DA:377,0
DA:378,0
DA:379,0
DA:380,0
DA:381,0
DA:382,0
DA:383,0
DA:384,0
DA:385,0
DA:386,0
DA:387,0
DA:388,0
DA:389,0
DA:390,0
DA:391,0
DA:392,0
DA:393,0
DA:394,0
DA:395,0
DA:396,0
DA:397,0
DA:398,0
DA:399,0
DA:400,0
DA:401,0
DA:402,0
DA:403,0
DA:404,0
DA:405,0
DA:406,0
DA:407,0
DA:408,0
DA:409,0
DA:410,0
DA:411,0
DA:412,0
DA:413,0
DA:414,0
DA:415,0
DA:416,0
DA:417,0
DA:418,0
DA:419,0
DA:420,0
DA:421,0
DA:422,0
DA:423,0
DA:424,0
DA:425,0
DA:426,0
DA:427,0
DA:428,0
DA:429,0
DA:430,0
DA:431,0
DA:432,0
DA:433,0
DA:434,0
DA:435,0
DA:436,0
DA:437,0
DA:438,0
DA:439,0
DA:440,0
DA:441,0
DA:442,0
DA:443,0
DA:444,0
DA:445,0
DA:446,0
DA:447,0
DA:448,0
DA:449,0
DA:450,0
DA:451,0
DA:452,0
DA:453,0
DA:454,0
DA:455,0
DA:456,0
DA:457,0
DA:458,0
DA:459,0
DA:460,0
DA:461,0
DA:462,0
DA:463,0
DA:464,0
DA:465,0
DA:466,0
DA:467,0
DA:468,0
DA:469,0
DA:470,0
DA:471,0
DA:472,0
DA:473,0
DA:474,0
DA:475,0
DA:476,0
DA:477,0
DA:478,0
DA:479,0
DA:480,0
DA:481,0
DA:482,0
DA:483,0
DA:484,0
DA:485,0
DA:486,0
DA:487,0
DA:488,0
DA:489,0
DA:490,0
DA:491,0
DA:492,0
DA:493,0
DA:494,0
DA:495,0
DA:496,0
DA:497,0
DA:498,0
DA:499,0
DA:500,0
DA:501,0
DA:502,0
DA:503,0
DA:504,0
DA:505,0
DA:506,0
DA:507,0
DA:508,0
DA:509,0
DA:510,0
DA:511,0
DA:512,0
DA:513,0
DA:514,0
DA:515,0
DA:516,0
DA:517,0
DA:518,0
DA:519,0
DA:520,0
DA:521,0
DA:522,0
DA:523,0
DA:524,0
DA:525,0
DA:526,0
DA:527,0
DA:528,0
DA:529,0
DA:530,0
DA:531,0
DA:532,0
DA:533,0
DA:534,0
DA:535,0
DA:536,0
DA:537,0
DA:538,0
DA:539,0
DA:540,0
DA:541,0
DA:542,0
DA:543,0
DA:544,0
DA:545,0
DA:546,0
DA:547,0
DA:548,0
DA:549,0
DA:550,0
DA:551,0
DA:552,0
DA:553,0
DA:554,0
DA:555,0
DA:556,0
DA:557,0
DA:558,0
DA:559,0
DA:560,0
DA:561,0
DA:562,0
DA:563,0
DA:564,0
DA:565,0
DA:566,0
DA:567,0
DA:568,0
DA:569,0
DA:570,0
DA:571,0
DA:572,0
DA:573,0
DA:574,0
DA:575,0
DA:576,0
DA:577,0
DA:578,0
DA:579,0
DA:580,0
DA:581,0
DA:582,0
DA:583,0
DA:584,0
DA:585,0
DA:586,0
DA:587,0
DA:588,0
DA:589,0
DA:590,0
DA:591,0
DA:592,0
DA:593,0
DA:594,0
DA:595,0
DA:596,0
DA:597,0
DA:598,0
DA:599,0
DA:600,0
DA:601,0
DA:602,0
DA:603,0
DA:604,0
DA:605,0
DA:606,0
DA:607,0
DA:608,0
DA:609,0
DA:610,0
DA:611,0
DA:612,0
DA:613,0
DA:614,0
DA:615,0
DA:616,0
DA:617,0
DA:618,0
DA:619,0
DA:620,0
DA:621,0
DA:622,0
DA:623,0
DA:624,0
DA:625,0
DA:626,0
DA:627,0
DA:628,0
DA:629,0
DA:630,0
DA:631,0
DA:632,0
DA:633,0
DA:634,0
DA:635,0
DA:636,0
DA:637,0
DA:638,0
DA:639,0
DA:640,0
DA:641,0
DA:642,0
DA:643,0
DA:644,0
DA:645,0
DA:646,0
DA:647,0
DA:648,0
DA:649,0
DA:650,0
DA:651,0
DA:652,0
DA:653,0
DA:654,0
BRF:0
BRH:0
LF:649
LH:0
end_of_record
SF:/Users/christianfindlay/Documents/Code/dart_mutant/src/report/mod.rs
FN:35,_RNvXNtCseR5cf6Ey2ES_11dart_mutant6reportNtNtB4_8mutation12MutantStatusNtB2_19MutantStatusDisplay5emoji
FN:25,_RNvXNtCseR5cf6Ey2ES_11dart_mutant6reportNtNtB4_8mutation12MutantStatusNtB2_19MutantStatusDisplay9css_class
FN:120,_RNCNCNvNtCseR5cf6Ey2ES_11dart_mutant6report20generate_html_report00B7_
FN:133,_RNCNCNvNtCseR5cf6Ey2ES_11dart_mutant6report20generate_html_report0s_0B7_
FN:547,_RNCNvNtCseR5cf6Ey2ES_11dart_mutant6report18generate_ai_report0B5_
FN:483,_RNCNvNtCseR5cf6Ey2ES_11dart_mutant6report19generate_json_files0B5_
FN:116,_RNCNvNtCseR5cf6Ey2ES_11dart_mutant6report20generate_html_report0B5_
FN:138,_RNCNvNtCseR5cf6Ey2ES_11dart_mutant6report20generate_html_reports_0B5_
FN:391,_RNCNvNtCseR5cf6Ey2ES_11dart_mutant6report20generate_json_report0B5_
FN:323,_RNCNvNtCseR5cf6Ey2ES_11dart_mutant6report21generate_file_section0B5_
FN:176,_RNCNvNtCseR5cf6Ey2ES_11dart_mutant6report21generate_html_content0B5_
FN:73,_RNvMs0_NtCseR5cf6Ey2ES_11dart_mutant6reportNtB5_14MutationResult12from_results
FN:372,_RNvNtCseR5cf6Ey2ES_11dart_mutant6report11html_escape
FN:500,_RNvNtCseR5cf6Ey2ES_11dart_mutant6report18generate_ai_report
FN:598,_RNvNtCseR5cf6Ey2ES_11dart_mutant6report18generate_test_hint
FN:450,_RNvNtCseR5cf6Ey2ES_11dart_mutant6report19generate_json_files
FN:100,_RNvNtCseR5cf6Ey2ES_11dart_mutant6report20generate_html_report
FN:381,_RNvNtCseR5cf6Ey2ES_11dart_mutant6report20generate_json_report
FN:311,_RNvNtCseR5cf6Ey2ES_11dart_mutant6report21generate_file_section
FN:161,_RNvNtCseR5cf6Ey2ES_11dart_mutant6report21generate_html_content
FN:59,_RNvXs_NtCseR5cf6Ey2ES_11dart_mutant6reportNtB4_14MutationResultNtNtCsaTRkahAGrLL_4core7default7Default7default
FN:120,_RNCNCNvNtCshkVzQuBAxZ5_11dart_mutant6report20generate_html_report00B7_
FN:133,_RNCNCNvNtCshkVzQuBAxZ5_11dart_mutant6report20generate_html_report0s_0B7_
FN:547,_RNCNvNtCshkVzQuBAxZ5_11dart_mutant6report18generate_ai_report0B5_
FN:483,_RNCNvNtCshkVzQuBAxZ5_11dart_mutant6report19generate_json_files0B5_
FN:116,_RNCNvNtCshkVzQuBAxZ5_11dart_mutant6report20generate_html_report0B5_
FN:138,_RNCNvNtCshkVzQuBAxZ5_11dart_mutant6report20generate_html_reports_0B5_
FN:391,_RNCNvNtCshkVzQuBAxZ5_11dart_mutant6report20generate_json_report0B5_
FN:323,_RNCNvNtCshkVzQuBAxZ5_11dart_mutant6report21generate_file_section0B5_
FN:176,_RNCNvNtCshkVzQuBAxZ5_11dart_mutant6report21generate_html_content0B5_
FN:73,_RNvMs0_NtCshkVzQuBAxZ5_11dart_mutant6reportNtB5_14MutationResult12from_results
FN:372,_RNvNtCshkVzQuBAxZ5_11dart_mutant6report11html_escape
FN:500,_RNvNtCshkVzQuBAxZ5_11dart_mutant6report18generate_ai_report
FN:598,_RNvNtCshkVzQuBAxZ5_11dart_mutant6report18generate_test_hint
FN:450,_RNvNtCshkVzQuBAxZ5_11dart_mutant6report19generate_json_files
FN:100,_RNvNtCshkVzQuBAxZ5_11dart_mutant6report20generate_html_report
FN:381,_RNvNtCshkVzQuBAxZ5_11dart_mutant6report20generate_json_report
FN:311,_RNvNtCshkVzQuBAxZ5_11dart_mutant6report21generate_file_section
FN:161,_RNvNtCshkVzQuBAxZ5_11dart_mutant6report21generate_html_content
FN:35,_RNvXNtCshkVzQuBAxZ5_11dart_mutant6reportNtNtB4_8mutation12MutantStatusNtB2_19MutantStatusDisplay5emoji
FN:25,_RNvXNtCshkVzQuBAxZ5_11dart_mutant6reportNtNtB4_8mutation12MutantStatusNtB2_19MutantStatusDisplay9css_class
FN:59,_RNvXs_NtCshkVzQuBAxZ5_11dart_mutant6reportNtB4_14MutationResultNtNtCsaTRkahAGrLL_4core7default7Default7default
FNDA:0,_RNvXNtCseR5cf6Ey2ES_11dart_mutant6reportNtNtB4_8mutation12MutantStatusNtB2_19MutantStatusDisplay5emoji
FNDA:0,_RNvXNtCseR5cf6Ey2ES_11dart_mutant6reportNtNtB4_8mutation12MutantStatusNtB2_19MutantStatusDisplay9css_class
FNDA:0,_RNCNCNvNtCseR5cf6Ey2ES_11dart_mutant6report20generate_html_report00B7_
FNDA:0,_RNCNCNvNtCseR5cf6Ey2ES_11dart_mutant6report20generate_html_report0s_0B7_
FNDA:0,_RNCNvNtCseR5cf6Ey2ES_11dart_mutant6report18generate_ai_report0B5_
FNDA:0,_RNCNvNtCseR5cf6Ey2ES_11dart_mutant6report19generate_json_files0B5_
FNDA:0,_RNCNvNtCseR5cf6Ey2ES_11dart_mutant6report20generate_html_report0B5_
FNDA:0,_RNCNvNtCseR5cf6Ey2ES_11dart_mutant6report20generate_html_reports_0B5_
FNDA:0,_RNCNvNtCseR5cf6Ey2ES_11dart_mutant6report20generate_json_report0B5_
FNDA:0,_RNCNvNtCseR5cf6Ey2ES_11dart_mutant6report21generate_file_section0B5_
FNDA:0,_RNCNvNtCseR5cf6Ey2ES_11dart_mutant6report21generate_html_content0B5_
FNDA:0,_RNvMs0_NtCseR5cf6Ey2ES_11dart_mutant6reportNtB5_14MutationResult12from_results
FNDA:0,_RNvNtCseR5cf6Ey2ES_11dart_mutant6report11html_escape
FNDA:0,_RNvNtCseR5cf6Ey2ES_11dart_mutant6report18generate_ai_report
FNDA:0,_RNvNtCseR5cf6Ey2ES_11dart_mutant6report18generate_test_hint
FNDA:0,_RNvNtCseR5cf6Ey2ES_11dart_mutant6report19generate_json_files
FNDA:0,_RNvNtCseR5cf6Ey2ES_11dart_mutant6report20generate_html_report
FNDA:0,_RNvNtCseR5cf6Ey2ES_11dart_mutant6report20generate_json_report
FNDA:0,_RNvNtCseR5cf6Ey2ES_11dart_mutant6report21generate_file_section
FNDA:0,_RNvNtCseR5cf6Ey2ES_11dart_mutant6report21generate_html_content
FNDA:0,_RNvXs_NtCseR5cf6Ey2ES_11dart_mutant6reportNtB4_14MutationResultNtNtCsaTRkahAGrLL_4core7default7Default7default
FNDA:0,_RNCNCNvNtCshkVzQuBAxZ5_11dart_mutant6report20generate_html_report00B7_
FNDA:0,_RNCNCNvNtCshkVzQuBAxZ5_11dart_mutant6report20generate_html_report0s_0B7_
FNDA:0,_RNCNvNtCshkVzQuBAxZ5_11dart_mutant6report18generate_ai_report0B5_
FNDA:0,_RNCNvNtCshkVzQuBAxZ5_11dart_mutant6report19generate_json_files0B5_
FNDA:0,_RNCNvNtCshkVzQuBAxZ5_11dart_mutant6report20generate_html_report0B5_
FNDA:0,_RNCNvNtCshkVzQuBAxZ5_11dart_mutant6report20generate_html_reports_0B5_
FNDA:0,_RNCNvNtCshkVzQuBAxZ5_11dart_mutant6report20generate_json_report0B5_
FNDA:0,_RNCNvNtCshkVzQuBAxZ5_11dart_mutant6report21generate_file_section0B5_
FNDA:0,_RNCNvNtCshkVzQuBAxZ5_11dart_mutant6report21generate_html_content0B5_
FNDA:0,_RNvMs0_NtCshkVzQuBAxZ5_11dart_mutant6reportNtB5_14MutationResult12from_results
FNDA:0,_RNvNtCshkVzQuBAxZ5_11dart_mutant6report11html_escape
FNDA:0,_RNvNtCshkVzQuBAxZ5_11dart_mutant6report18generate_ai_report
FNDA:0,_RNvNtCshkVzQuBAxZ5_11dart_mutant6report18generate_test_hint
FNDA:0,_RNvNtCshkVzQuBAxZ5_11dart_mutant6report19generate_json_files
FNDA:0,_RNvNtCshkVzQuBAxZ5_11dart_mutant6report20generate_html_report
FNDA:0,_RNvNtCshkVzQuBAxZ5_11dart_mutant6report20generate_json_report
FNDA:0,_RNvNtCshkVzQuBAxZ5_11dart_mutant6report21generate_file_section
FNDA:0,_RNvNtCshkVzQuBAxZ5_11dart_mutant6report21generate_html_content
FNDA:0,_RNvXNtCshkVzQuBAxZ5_11dart_mutant6reportNtNtB4_8mutation12MutantStatusNtB2_19MutantStatusDisplay5emoji
FNDA:0,_RNvXNtCshkVzQuBAxZ5_11dart_mutant6reportNtNtB4_8mutation12MutantStatusNtB2_19MutantStatusDisplay9css_class
FNDA:0,_RNvXs_NtCshkVzQuBAxZ5_11dart_mutant6reportNtB4_14MutationResultNtNtCsaTRkahAGrLL_4core7default7Default7default
FNF:21
FNH:0
DA:25,0
DA:26,0
DA:27,0
DA:28,0
DA:29,0
DA:30,0
DA:31,0
DA:33,0
DA:35,0
DA:36,0
DA:37,0
DA:38,0
DA:39,0
DA:40,0
DA:41,0
DA:43,0
DA:59,0
DA:60,0
DA:61,0
DA:62,0
DA:63,0
DA:64,0
DA:65,0
DA:66,0
DA:67,0
DA:68,0
DA:69,0
DA:73,0
DA:74,0
DA:75,0
DA:77,0
DA:78,0
DA:79,0
DA:80,0
DA:81,0
DA:82,0
DA:83,0
DA:87,0
DA:88,0
DA:89,0
DA:90,0
DA:92,0
DA:95,0
DA:96,0
DA:100,0
DA:101,0
DA:102,0
DA:103,0
DA:104,0
DA:105,0
DA:106,0
DA:107,0
DA:108,0
DA:109,0
DA:110,0
DA:111,0
DA:114,0
DA:115,0
DA:116,0
DA:117,0
DA:118,0
DA:119,0
DA:120,0
DA:121,0
DA:122,0
DA:123,0
DA:125,0
DA:128,0
DA:129,0
DA:130,0
DA:131,0
DA:132,0
DA:133,0
DA:134,0
DA:135,0
DA:136,0
DA:137,0
DA:138,0
DA:139,0
DA:140,0
DA:141,0
DA:142,0
DA:143,0
DA:144,0
DA:145,0
DA:146,0
DA:147,0
DA:149,0
DA:150,0
DA:161,0
DA:162,0
DA:163,0
DA:164,0
DA:165,0
DA:166,0
DA:167,0
DA:168,0
DA:169,0
DA:171,0
DA:174,0
DA:175,0
DA:176,0
DA:177,0
DA:178,0
DA:179,0
DA:180,0
DA:181,0
DA:182,0
DA:183,0
DA:184,0
DA:185,0
DA:186,0
DA:187,0
DA:188,0
DA:189,0
DA:190,0
DA:191,0
DA:192,0
DA:193,0
DA:194,0
DA:195,0
DA:196,0
DA:197,0
DA:198,0
DA:199,0
DA:200,0
DA:201,0
DA:202,0
DA:203,0
DA:204,0
DA:205,0
DA:206,0
DA:207,0
DA:208,0
DA:209,0
DA:210,0
DA:211,0
DA:212,0
DA:213,0
DA:214,0
DA:215,0
DA:216,0
DA:217,0
DA:218,0
DA:219,0
DA:220,0
DA:221,0
DA:222,0
DA:223,0
DA:224,0
DA:225,0
DA:226,0
DA:227,0
DA:228,0
DA:229,0
DA:230,0
DA:231,0
DA:232,0
DA:233,0
DA:234,0
DA:235,0
DA:236,0
DA:237,0
DA:238,0
DA:239,0
DA:240,0
DA:241,0
DA:242,0
DA:243,0
DA:244,0
DA:245,0
DA:246,0
DA:247,0
DA:248,0
DA:249,0
DA:250,0
DA:251,0
DA:252,0
DA:253,0
DA:254,0
DA:255,0
DA:256,0
DA:257,0
DA:258,0
DA:259,0
DA:260,0
DA:261,0
DA:262,0
DA:263,0
DA:264,0
DA:265,0
DA:266,0
DA:267,0
DA:268,0
DA:269,0
DA:270,0
DA:271,0
DA:272,0
DA:273,0
DA:274,0
DA:275,0
DA:276,0
DA:277,0
DA:278,0
DA:279,0
DA:280,0
DA:281,0
DA:282,0
DA:283,0
DA:284,0
DA:285,0
DA:286,0
DA:287,0
DA:288,0
DA:289,0
DA:290,0
DA:291,0
DA:292,0
DA:293,0
DA:294,0
DA:295,0
DA:296,0
DA:297,0
DA:298,0
DA:299,0
DA:300,0
DA:301,0
DA:302,0
DA:303,0
DA:304,0
DA:305,0
DA:306,0
DA:307,0
DA:308,0
DA:309,0
DA:311,0
DA:312,0
DA:313,0
DA:314,0
DA:315,0
DA:317,0
DA:320,0
DA:321,0
DA:322,0
DA:323,0
DA:324,0
DA:325,0
DA:326,0
DA:327,0
DA:328,0
DA:329,0
DA:330,0
DA:331,0
DA:332,0
DA:333,0
DA:334,0
DA:335,0
DA:336,0
DA:337,0
DA:338,0
DA:339,0
DA:340,0
DA:341,0
DA:342,0
DA:343,0
DA:344,0
DA:345,0
DA:346,0
DA:347,0
DA:348,0
DA:349,0
DA:350,0
DA:351,0
DA:352,0
DA:353,0
DA:354,0
DA:355,0
DA:356,0
DA:357,0
DA:358,0
DA:359,0
DA:360,0
DA:361,0
DA:362,0
DA:363,0
DA:364,0
DA:365,0
DA:366,0
DA:367,0
DA:368,0
DA:369,0
DA:370,0
DA:372,0
DA:373,0
DA:374,0
DA:375,0
DA:376,0
DA:377,0
DA:378,0
DA:381,0
DA:382,0
DA:383,0
DA:384,0
DA:385,0
DA:386,0
DA:387,0
DA:388,0
DA:389,0
DA:390,0
DA:391,0
DA:392,0
DA:393,0
DA:394,0
DA:396,0
DA:397,0
DA:398,0
DA:400,0
DA:401,0
DA:450,0
DA:451,0
DA:453,0
DA:454,0
DA:456,0
DA:457,0
DA:458,0
DA:459,0
DA:460,0
DA:461,0
DA:462,0
DA:463,0
DA:464,0
DA:465,0
DA:467,0
DA:468,0
DA:469,0
DA:470,0
DA:471,0
DA:472,0
DA:473,0
DA:474,0
DA:475,0
DA:476,0
DA:477,0
DA:478,0
DA:479,0
DA:480,0
DA:481,0
DA:482,0
DA:483,0
DA:484,0
DA:485,0
DA:486,0
DA:487,0
DA:488,0
DA:489,0
DA:491,0
DA:492,0
DA:500,0
DA:501,0
DA:502,0
DA:503,0
DA:504,0
DA:505,0
DA:506,0
DA:507,0
DA:508,0
DA:509,0
DA:510,0
DA:511,0
DA:512,0
DA:513,0
DA:514,0
DA:515,0
DA:516,0
DA:517,0
DA:518,0
DA:519,0
DA:520,0
DA:521,0
DA:522,0
DA:523,0
DA:524,0
DA:525,0
DA:526,0
DA:527,0
DA:528,0
DA:529,0
DA:530,0
DA:531,0
DA:532,0
DA:533,0
DA:534,0
DA:535,0
DA:538,0
DA:539,0
DA:540,0
DA:541,0
DA:542,0
DA:543,0
DA:544,0
DA:545,0
DA:546,0
DA:547,0
DA:549,0
DA:550,0
DA:551,0
DA:553,0
DA:554,0
DA:555,0
DA:556,0
DA:557,0
DA:558,0
DA:559,0
DA:560,0
DA:561,0
DA:562,0
DA:563,0
DA:564,0
DA:565,0
DA:566,0
DA:567,0
DA:568,0
DA:573,0
DA:574,0
DA:575,0
DA:576,0
DA:577,0
DA:578,0
DA:579,0
DA:580,0
DA:581,0
DA:582,0
DA:583,0
DA:584,0
DA:585,0
DA:586,0
DA:588,0
DA:589,0
DA:591,0
DA:592,0
DA:594,0
DA:595,0
DA:598,0
DA:599,0
DA:600,0
DA:601,0
DA:602,0
DA:605,0
DA:610,0
DA:611,0
DA:612,0
DA:613,0
DA:614,0
DA:617,0
DA:618,0
DA:619,0
DA:620,0
DA:621,0
DA:624,0
DA:625,0
DA:634,0
DA:635,0
DA:636,0
DA:637,0
DA:638,0
DA:644,0
DA:645,0
DA:646,0
DA:649,0
DA:650,0
DA:651,0
DA:652,0
DA:653,0
DA:660,0
DA:661,0
DA:662,0
DA:665,0
DA:666,0
DA:667,0
DA:674,0
DA:675,0
DA:676,0
DA:677,0
DA:678,0
DA:685,0
DA:686,0
DA:687,0
DA:690,0
DA:691,0
DA:694,0
DA:695,0
DA:696,0
DA:701,0
DA:702,0
DA:703,0
DA:706,0
DA:707,0
DA:708,0
DA:711,0
DA:714,0
DA:715,0
DA:722,0
DA:723,0
DA:730,0
DA:731,0
DA:732,0
DA:735,0
DA:736,0
DA:740,0
DA:741,0
DA:744,0
DA:745,0
DA:752,0
DA:753,0
DA:754,0
DA:757,0
DA:758,0
DA:759,0
DA:762,0
DA:763,0
DA:767,0
DA:768,0
DA:769,0
DA:770,0
DA:772,0
BRF:0
BRH:0
LF:538
LH:0
end_of_record
SF:/Users/christianfindlay/Documents/Code/dart_mutant/src/runner/mod.rs
FN:26,_RNvXNtCseR5cf6Ey2ES_11dart_mutant6runnerNtB2_16FileRestoreGuardNtNtNtCsaTRkahAGrLL_4core3ops4drop4Drop4drop
FN:93,_RNCNCNCNvNtCseR5cf6Ey2ES_11dart_mutant6runner18run_mutation_tests000B9_
FN:55,_RNCNCNvNtCseR5cf6Ey2ES_11dart_mutant6runner13get_file_lock00B7_
FN:84,_RNCNCNvNtCseR5cf6Ey2ES_11dart_mutant6runner18run_mutation_tests00B7_
FN:51,_RNCNvNtCseR5cf6Ey2ES_11dart_mutant6runner13get_file_lock0B5_
FN:219,_RNCNvNtCseR5cf6Ey2ES_11dart_mutant6runner13run_dart_test0B5_
FN:70,_RNCNvNtCseR5cf6Ey2ES_11dart_mutant6runner18run_mutation_tests0B5_
FN:144,_RNCNvNtCseR5cf6Ey2ES_11dart_mutant6runner20test_single_mutation0B5_
FN:51,_RNvNtCseR5cf6Ey2ES_11dart_mutant6runner13get_file_lock
FN:219,_RNvNtCseR5cf6Ey2ES_11dart_mutant6runner13run_dart_test
FN:64,_RNvNtCseR5cf6Ey2ES_11dart_mutant6runner18run_mutation_tests
FN:140,_RNvNtCseR5cf6Ey2ES_11dart_mutant6runner20test_single_mutation
FN:51,_RNvNtCshkVzQuBAxZ5_11dart_mutant6runner13get_file_lock
FN:55,_RNCNCNvNtCshkVzQuBAxZ5_11dart_mutant6runner13get_file_lock00B7_
FN:51,_RNCNvNtCshkVzQuBAxZ5_11dart_mutant6runner13get_file_lock0B5_
FN:93,_RNCNCNCNvNtCshkVzQuBAxZ5_11dart_mutant6runner18run_mutation_tests000B9_
FN:84,_RNCNCNvNtCshkVzQuBAxZ5_11dart_mutant6runner18run_mutation_tests00B7_
FN:219,_RNCNvNtCshkVzQuBAxZ5_11dart_mutant6runner13run_dart_test0B5_
FN:70,_RNCNvNtCshkVzQuBAxZ5_11dart_mutant6runner18run_mutation_tests0B5_
FN:144,_RNCNvNtCshkVzQuBAxZ5_11dart_mutant6runner20test_single_mutation0B5_
FN:219,_RNvNtCshkVzQuBAxZ5_11dart_mutant6runner13run_dart_test
FN:64,_RNvNtCshkVzQuBAxZ5_11dart_mutant6runner18run_mutation_tests
FN:140,_RNvNtCshkVzQuBAxZ5_11dart_mutant6runner20test_single_mutation
FN:268,_RNvNtNtCshkVzQuBAxZ5_11dart_mutant6runner5tests24create_mutation_for_file
FN:26,_RNvXNtCshkVzQuBAxZ5_11dart_mutant6runnerNtB2_16FileRestoreGuardNtNtNtCsaTRkahAGrLL_4core3ops4drop4Drop4drop
FN:245,_RNvNtNtCshkVzQuBAxZ5_11dart_mutant6runner5tests20create_test_mutation
FN:291,_RNvNtNtCshkVzQuBAxZ5_11dart_mutant6runner5testss_22test_mutation_creation
FN:299,_RNvNtNtCshkVzQuBAxZ5_11dart_mutant6runner5testss_23test_file_lock_creation
FN:503,_RNvNtNtCshkVzQuBAxZ5_11dart_mutant6runner5testss_30test_lock_released_after_scope
FN:429,_RNvNtNtCshkVzQuBAxZ5_11dart_mutant6runner5testss_30test_mixed_file_access_pattern
FN:314,_RNvNtNtCshkVzQuBAxZ5_11dart_mutant6runner5testss_40test_different_files_get_different_locks
FN:327,_RNvNtNtCshkVzQuBAxZ5_11dart_mutant6runner5testss_41test_file_lock_prevents_concurrent_access
FN:379,_RNvNtNtCshkVzQuBAxZ5_11dart_mutant6runner5testss_49test_different_files_can_be_accessed_concurrently
FN:450,_RNCNCNvNtNtCshkVzQuBAxZ5_11dart_mutant6runner5testss_30test_mixed_file_access_pattern00B9_
FN:471,_RNCNCNvNtNtCshkVzQuBAxZ5_11dart_mutant6runner5testss_30test_mixed_file_access_pattern0s_0B9_
FN:344,_RNCNCNvNtNtCshkVzQuBAxZ5_11dart_mutant6runner5testss_41test_file_lock_prevents_concurrent_access00B9_
FN:395,_RNCNCNvNtNtCshkVzQuBAxZ5_11dart_mutant6runner5testss_49test_different_files_can_be_accessed_concurrently00B9_
FN:299,_RNCNvNtNtCshkVzQuBAxZ5_11dart_mutant6runner5testss_23test_file_lock_creation0B7_
FN:503,_RNCNvNtNtCshkVzQuBAxZ5_11dart_mutant6runner5testss_30test_lock_released_after_scope0B7_
FN:429,_RNCNvNtNtCshkVzQuBAxZ5_11dart_mutant6runner5testss_30test_mixed_file_access_pattern0B7_
FN:314,_RNCNvNtNtCshkVzQuBAxZ5_11dart_mutant6runner5testss_40test_different_files_get_different_locks0B7_
FN:327,_RNCNvNtNtCshkVzQuBAxZ5_11dart_mutant6runner5testss_41test_file_lock_prevents_concurrent_access0B7_
FN:379,_RNCNvNtNtCshkVzQuBAxZ5_11dart_mutant6runner5testss_49test_different_files_can_be_accessed_concurrently0B7_
FNDA:0,_RNvXNtCseR5cf6Ey2ES_11dart_mutant6runnerNtB2_16FileRestoreGuardNtNtNtCsaTRkahAGrLL_4core3ops4drop4Drop4drop
FNDA:0,_RNCNCNCNvNtCseR5cf6Ey2ES_11dart_mutant6runner18run_mutation_tests000B9_
FNDA:0,_RNCNCNvNtCseR5cf6Ey2ES_11dart_mutant6runner13get_file_lock00B7_
FNDA:0,_RNCNCNvNtCseR5cf6Ey2ES_11dart_mutant6runner18run_mutation_tests00B7_
FNDA:0,_RNCNvNtCseR5cf6Ey2ES_11dart_mutant6runner13get_file_lock0B5_
FNDA:0,_RNCNvNtCseR5cf6Ey2ES_11dart_mutant6runner13run_dart_test0B5_
FNDA:0,_RNCNvNtCseR5cf6Ey2ES_11dart_mutant6runner18run_mutation_tests0B5_
FNDA:0,_RNCNvNtCseR5cf6Ey2ES_11dart_mutant6runner20test_single_mutation0B5_
FNDA:0,_RNvNtCseR5cf6Ey2ES_11dart_mutant6runner13get_file_lock
FNDA:0,_RNvNtCseR5cf6Ey2ES_11dart_mutant6runner13run_dart_test
FNDA:0,_RNvNtCseR5cf6Ey2ES_11dart_mutant6runner18run_mutation_tests
FNDA:0,_RNvNtCseR5cf6Ey2ES_11dart_mutant6runner20test_single_mutation
FNDA:36,_RNvNtCshkVzQuBAxZ5_11dart_mutant6runner13get_file_lock
FNDA:17,_RNCNCNvNtCshkVzQuBAxZ5_11dart_mutant6runner13get_file_lock00B7_
FNDA:36,_RNCNvNtCshkVzQuBAxZ5_11dart_mutant6runner13get_file_lock0B5_
FNDA:0,_RNCNCNCNvNtCshkVzQuBAxZ5_11dart_mutant6runner18run_mutation_tests000B9_
FNDA:0,_RNCNCNvNtCshkVzQuBAxZ5_11dart_mutant6runner18run_mutation_tests00B7_
FNDA:0,_RNCNvNtCshkVzQuBAxZ5_11dart_mutant6runner13run_dart_test0B5_
FNDA:0,_RNCNvNtCshkVzQuBAxZ5_11dart_mutant6runner18run_mutation_tests0B5_
FNDA:0,_RNCNvNtCshkVzQuBAxZ5_11dart_mutant6runner20test_single_mutation0B5_
FNDA:0,_RNvNtCshkVzQuBAxZ5_11dart_mutant6runner13run_dart_test
FNDA:0,_RNvNtCshkVzQuBAxZ5_11dart_mutant6runner18run_mutation_tests
FNDA:0,_RNvNtCshkVzQuBAxZ5_11dart_mutant6runner20test_single_mutation
FNDA:0,_RNvNtNtCshkVzQuBAxZ5_11dart_mutant6runner5tests24create_mutation_for_file
FNDA:0,_RNvXNtCshkVzQuBAxZ5_11dart_mutant6runnerNtB2_16FileRestoreGuardNtNtNtCsaTRkahAGrLL_4core3ops4drop4Drop4drop
FNDA:1,_RNvNtNtCshkVzQuBAxZ5_11dart_mutant6runner5tests20create_test_mutation
FNDA:1,_RNvNtNtCshkVzQuBAxZ5_11dart_mutant6runner5testss_22test_mutation_creation
FNDA:1,_RNvNtNtCshkVzQuBAxZ5_11dart_mutant6runner5testss_23test_file_lock_creation
FNDA:1,_RNvNtNtCshkVzQuBAxZ5_11dart_mutant6runner5testss_30test_lock_released_after_scope
FNDA:1,_RNvNtNtCshkVzQuBAxZ5_11dart_mutant6runner5testss_30test_mixed_file_access_pattern
FNDA:1,_RNvNtNtCshkVzQuBAxZ5_11dart_mutant6runner5testss_40test_different_files_get_different_locks
FNDA:1,_RNvNtNtCshkVzQuBAxZ5_11dart_mutant6runner5testss_41test_file_lock_prevents_concurrent_access
FNDA:1,_RNvNtNtCshkVzQuBAxZ5_11dart_mutant6runner5testss_49test_different_files_can_be_accessed_concurrently
FNDA:5,_RNCNCNvNtNtCshkVzQuBAxZ5_11dart_mutant6runner5testss_30test_mixed_file_access_pattern00B9_
FNDA:5,_RNCNCNvNtNtCshkVzQuBAxZ5_11dart_mutant6runner5testss_30test_mixed_file_access_pattern0s_0B9_
FNDA:10,_RNCNCNvNtNtCshkVzQuBAxZ5_11dart_mutant6runner5testss_41test_file_lock_prevents_concurrent_access00B9_
FNDA:10,_RNCNCNvNtNtCshkVzQuBAxZ5_11dart_mutant6runner5testss_49test_different_files_can_be_accessed_concurrently00B9_
FNDA:1,_RNCNvNtNtCshkVzQuBAxZ5_11dart_mutant6runner5testss_23test_file_lock_creation0B7_
FNDA:1,_RNCNvNtNtCshkVzQuBAxZ5_11dart_mutant6runner5testss_30test_lock_released_after_scope0B7_
FNDA:1,_RNCNvNtNtCshkVzQuBAxZ5_11dart_mutant6runner5testss_30test_mixed_file_access_pattern0B7_
FNDA:1,_RNCNvNtNtCshkVzQuBAxZ5_11dart_mutant6runner5testss_40test_different_files_get_different_locks0B7_
FNDA:1,_RNCNvNtNtCshkVzQuBAxZ5_11dart_mutant6runner5testss_41test_file_lock_prevents_concurrent_access0B7_
FNDA:1,_RNCNvNtNtCshkVzQuBAxZ5_11dart_mutant6runner5testss_49test_different_files_can_be_accessed_concurrently0B7_
FNF:31
FNH:21
DA:26,0
DA:27,0
DA:28,0
DA:29,0
DA:30,0
DA:31,0
DA:32,0
DA:33,0
DA:34,0
DA:51,36
DA:52,36
DA:53,36
DA:54,36
DA:55,36
DA:56,36
DA:57,36
DA:64,0
DA:65,0
DA:66,0
DA:67,0
DA:68,0
DA:69,0
DA:70,0
DA:71,0
DA:72,0
DA:73,0
DA:74,0
DA:75,0
DA:76,0
DA:77,0
DA:78,0
DA:79,0
DA:80,0
DA:81,0
DA:82,0
DA:83,0
DA:84,0
DA:85,0
DA:86,0
DA:87,0
DA:88,0
DA:89,0
DA:90,0
DA:91,0
DA:92,0
DA:93,0
DA:94,0
DA:95,0
DA:96,0
DA:97,0
DA:98,0
DA:99,0
DA:100,0
DA:101,0
DA:105,0
DA:106,0
DA:108,0
DA:111,0
DA:112,0
DA:113,0
DA:114,0
DA:115,0
DA:116,0
DA:117,0
DA:118,0
DA:121,0
DA:122,0
DA:123,0
DA:124,0
DA:125,0
DA:126,0
DA:127,0
DA:128,0
DA:129,0
DA:130,0
DA:131,0
DA:132,0
DA:133,0
DA:136,0
DA:137,0
DA:140,0
DA:141,0
DA:142,0
DA:143,0
DA:144,0
DA:145,0
DA:146,0
DA:147,0
DA:148,0
DA:149,0
DA:150,0
DA:151,0
DA:152,0
DA:153,0
DA:154,0
DA:155,0
DA:156,0
DA:157,0
DA:158,0
DA:163,0
DA:164,0
DA:165,0
DA:166,0
DA:167,0
DA:168,0
DA:169,0
DA:172,0
DA:173,0
DA:174,0
DA:175,0
DA:176,0
DA:177,0
DA:178,0
DA:179,0
DA:180,0
DA:183,0
DA:188,0
DA:189,0
DA:190,0
DA:192,0
DA:195,0
DA:198,0
DA:201,0
DA:202,0
DA:203,0
DA:204,0
DA:205,0
DA:209,0
DA:210,0
DA:211,0
DA:212,0
DA:213,0
DA:214,0
DA:215,0
DA:216,0
DA:219,0
DA:220,0
DA:221,0
DA:222,0
DA:223,0
DA:224,0
DA:225,0
DA:226,0
DA:227,0
DA:228,0
DA:230,0
DA:231,0
DA:232,0
DA:233,0
DA:234,0
DA:235,0
DA:245,1
DA:246,1
DA:247,1
DA:248,1
DA:249,1
DA:250,1
DA:251,1
DA:252,1
DA:253,1
DA:254,1
DA:255,1
DA:256,1
DA:257,1
DA:258,1
DA:259,1
DA:260,1
DA:261,1
DA:262,1
DA:263,1
DA:264,1
DA:265,1
DA:268,0
DA:269,0
DA:270,0
DA:271,0
DA:272,0
DA:273,0
DA:274,0
DA:275,0
DA:276,0
DA:277,0
DA:278,0
DA:279,0
DA:280,0
DA:281,0
DA:282,0
DA:283,0
DA:284,0
DA:285,0
DA:286,0
DA:287,0
DA:288,0
DA:291,1
DA:292,1
DA:293,1
DA:294,1
DA:295,1
DA:296,1
DA:299,1
DA:300,1
DA:301,1
DA:302,1
DA:303,1
DA:304,1
DA:305,1
DA:306,1
DA:307,1
DA:308,1
DA:309,1
DA:310,1
DA:311,1
DA:314,1
DA:315,1
DA:316,1
DA:317,1
DA:318,1
DA:319,1
DA:320,1
DA:321,1
DA:322,1
DA:323,1
DA:324,1
DA:327,1
DA:328,1
DA:329,1
DA:330,1
DA:331,1
DA:332,1
DA:333,1
DA:334,1
DA:335,1
DA:336,1
DA:337,1
DA:338,11
DA:339,10
DA:340,10
DA:341,10
DA:342,10
DA:343,10
DA:344,10
DA:345,10
DA:346,10
DA:347,1
DA:348,1
DA:349,10
DA:350,10
DA:351,10
DA:352,10
DA:353,10
DA:354,10
DA:355,10
DA:356,1
DA:357,1
DA:358,10
DA:359,10
DA:360,10
DA:361,10
DA:362,10
DA:363,1
DA:364,1
DA:365,11
DA:366,10
DA:367,1
DA:368,1
DA:369,1
DA:370,1
DA:371,1
DA:372,1
DA:373,1
DA:374,0
DA:375,1
DA:376,1
DA:379,1
DA:380,1
DA:381,1
DA:382,1
DA:383,1
DA:384,1
DA:385,1
DA:386,1
DA:387,1
DA:388,1
DA:389,11
DA:390,10
DA:391,10
DA:392,10
DA:393,10
DA:394,10
DA:395,10
DA:396,10
DA:397,10
DA:398,1
DA:399,1
DA:400,10
DA:401,10
DA:402,10
DA:403,10
DA:404,10
DA:405,10
DA:406,10
DA:407,1
DA:408,1
DA:409,10
DA:410,10
DA:411,10
DA:412,10
DA:413,10
DA:414,1
DA:415,1
DA:416,11
DA:417,10
DA:418,1
DA:419,1
DA:420,1
DA:421,1
DA:422,1
DA:423,1
DA:424,0
DA:425,1
DA:426,1
DA:429,1
DA:430,1
DA:431,1
DA:432,1
DA:433,1
DA:434,1
DA:435,1
DA:436,1
DA:437,1
DA:438,1
DA:439,1
DA:440,1
DA:441,1
DA:442,1
DA:443,1
DA:444,6
DA:445,5
DA:446,5
DA:447,5
DA:448,5
DA:449,5
DA:450,5
DA:451,5
DA:452,5
DA:453,1
DA:454,5
DA:455,5
DA:456,5
DA:457,5
DA:458,1
DA:459,5
DA:460,5
DA:461,5
DA:462,5
DA:463,1
DA:464,1
DA:465,6
DA:466,5
DA:467,5
DA:468,5
DA:469,5
DA:470,5
DA:471,5
DA:472,5
DA:473,5
DA:474,1
DA:475,5
DA:476,5
DA:477,5
DA:478,5
DA:479,1
DA:480,5
DA:481,5
DA:482,5
DA:483,5
DA:484,1
DA:485,11
DA:486,10
DA:487,1
DA:488,1
DA:489,1
DA:490,1
DA:491,1
DA:492,1
DA:493,1
DA:494,1
DA:495,1
DA:496,1
DA:497,1
DA:498,1
DA:499,1
DA:500,1
DA:503,1
DA:504,1
DA:505,1
DA:506,1
DA:507,1
DA:508,1
DA:509,1
DA:510,1
DA:511,1
DA:512,1
DA:513,1
DA:514,1
DA:515,1
DA:516,1
DA:517,1
DA:518,1
DA:519,1
DA:520,1
DA:521,1
DA:522,1
DA:523,1
BRF:0
BRH:0
LF:581
LH:402
end_of_record